
                ; Load Address and File Size
                ;   Memory Contents     Stsrt Address   End Address     Byte Size
                ;   --------------------------------------------------------------
                ;       Music           $00068f7c       $0007c60e       $00013692
                ;
                ;
                ; This is music and player routine for Level 2/4 - Batmobile & Batwing
                ;
                ; $00048000  Initialise Music Player    - Set up Player Samples & Instruments
                ; $00048004  Silence All Audio          - Stop Playing and Silence Audio
                ; $00048008  Stop Audio 
                ; $0004800c  Stop Audio
                ; $00048010  Init Song                  - Initialise Song to Play (D0 = song number)
                ; $00048014  Play SFX                   - Initialise & PLay SFX on 4th audio channel (if not already playing or is higher priority of one that is playing) - L0004822c
                ; $00048018  Play Song                  - Called every VBL to play music

                ;--------------------- includes and constants ---------------------------
                INCDIR      "include"
                INCLUDE     "hw.i"


                section music,code_c

                IFND TEST_BUILD_LEVEL
; Music Player Constants
AUDIO_PLAYER_INIT               EQU $00068f80                       ; initialise music/sfx player
AUDIO_PLAYER_SILENCE            EQU $00068f84                       ; Silence all audio
AUDIO_PLAYER_INIT_SFX_1         EQU $00068f88                       ; Initialise SFX Audio Channnel
AUDIO_PLAYER_INIT_SFX_2         EQU $00068f8c                       ; same as init_sfx_1 above
AUDIO_PLAYER_INIT_SONG          EQU $00068f90                       ; initialise song to play - D0.l = song/sound 1 to 13
AUDIO_PLAYER_INIT_SFX           EQU $00068f94                       ; initialise sfx to play - d0.l = sfx 5 to 13
AUDIO_PLAYER_UPDATE             EQU $00068f98                       ; regular update (vblank to keep sounds/music playing)
                ENDC
                IFD TEST_BUILD_LEVEL
; Music Player Constants
AUDIO_PLAYER_INIT               EQU Init_Player                     ; initialise music/sfx player
AUDIO_PLAYER_SILENCE            EQU Stop_Playing                    ; Silence all audio
AUDIO_PLAYER_INIT_SFX_1         EQU Init_SFX_1                      ; Initialise SFX Audio Channnel
AUDIO_PLAYER_INIT_SFX_2         EQU Init_SFX_2                      ; same as init_sfx_1 above
AUDIO_PLAYER_INIT_SONG          EQU Init_Song                       ; initialise song to play - D0.l = song/sound 1 to 13
AUDIO_PLAYER_INIT_SFX           EQU Init_SFX                        ; initialise sfx to play - d0.l = sfx 5 to 13
AUDIO_PLAYER_UPDATE             EQU Play_Sounds                     ; regular update (vblank to keep sounds/music playing)
                ENDC    

;Chem.iff - Level Music - Constants
;----------------------------------
SFX_LEVEL_MUSIC     EQU         $01
SFX_LEVEL_COMPLETE  EQU         $02
SFX_LIFE_LOST       EQU         $03
SFX_TIMER_EXPIRED   EQU         $04
SFX_DRIP            EQU         $05
SFX_GASLEAK         EQU         $06
SFX_BATROPE         EQU         $07
SFX_BATARANG        EQU         $08
SFX_GRENADE         EQU         $09
SFX_GUYHIT          EQU         $0a
SFX_SPLASH          EQU         $0b
SFX_Ricochet        EQU         $0c
SFX_EXPLOSION       EQU         $0d


;TEST_MUSIC_BUILD SET 1             ; run a test build with imported GFX

        IFND TEST_MUSIC_BUILD
                IFND TEST_BUILD_LEVEL
                        org     $47fe4                                         ; original load address
                ENDC
        ELSE

kill_system
                lea     $dff000,a6
                move.w  #$7fff,INTENA(a6)
                move.w  #$7fff,DMACON(a6)
                move.w  #$7fff,INTREQ(a6)   
                lea     kill_system,a7                              ; initialise stack 
                bsr     init_system

                ;--------------------------------------------------------------
                ; TEST PROGRAM
                ; set song number below 'SOUND_TO_PLAY' for different songs/sfx
                ;   #$01 = Level 1 Music
                ;   #$02 = Level 1 Completed
                ;   #$03 = Player Live Lost
                ;   #$04 = Unknown/Unused Music - Level Timer Run out?
                ;   #$05 = Drip SFX
                ;   #$06 = Gas Leak
                ;   #$07 = Batrope
                ;   #$08 = Batarang
                ;   #$09 = Grenade
                ;   #$0a = Bad Guy Hit
                ;   #$0b = Splash (jack in the vat)
                ;   #$0c = Ricochet
                ;   #$0d = Explosion (grenade)
                ;--------------------------------------------------

SOUND_TO_PLAY   EQU     $01                                   ; valid range #$01 to #$0d

init_test_prg
                jsr     Init_Player                           ; init music routine/instruments

                lea     $dff000,a6
                lea     level_3_interrupt,a0
                move.l  a0,$6c.w
                move.W  #$c020,INTENA(a6)                       ; enable level 3 interrupt
                move.W  #$c020,INTENA(a6)                       ; enable level 3 interrupt

                moveq   #SOUND_TO_PLAY,d0                       ; song number to play
                jsr     Init_Song                               ; init song 1

loop
                jmp     loop     



                ;---------------- level 3 interrupt ----------------
                ; vertical blank interrupt handler.
                ; play the song at 25 frames per second.
                ;
level_3_interrupt
                movem.l d0-d7/a0-a6,-(a7)
                
                lea     $dff000,a6
                move.w  INTREQR(a6),d0
                and.w   #$0020,d0
                beq     .exit_isr

                jsr     check_change_sound

.play_music     ; play music @ 25 frames per second.
                eor.w   #$0001,frameskipper
                beq.s   .exit_isr
                jsr     Play_Sounds

.exit_isr
                ; clear level 3 interrut bits
                move.w  d0,INTREQ(a6)

                movem.l (a7)+,d0-d7/a0-a6
                rte


frameskipper:   dc.w    $0000                   ; used to only update music at 25 frames per second.
                                                ; otherwise it's too fast.


                ;--------------- check change sound ------------------
                ; check for mouse press and release, if so then
                ; increment the current sound.
                ; 
check_change_sound
                btst    #$6,$bfe001
                bne.s   .button_up
.button_down
                st.b    button_down
                bra.s   .end_button_check
.button_up
                cmp.b   #$ff,button_down
                bne.s   .end_button_check
.change_music
                sf.b    button_down
                addq.b  #$01,current_song
                cmp.b   #$0d,current_song
                ble.s   .change_song
.loop_id        
                move.b  #$01,current_song
.change_song       
                jsr     do_silence_all_audio
                moveq.l #$0,d0
                move.b  current_song,d0
                jsr     do_init_song
.end_button_check
                rts

                even
button_down     dc.b    $00
current_song    dc.b    SOUND_TO_PLAY
                even



                ; ------------------- kill system -----------------
                include "./lib/kill_system.s"

        ENDC    
   
original_start: ; original address $00068f7c
        dc.l    $00068F80


Init_Player
L00068f80           bra.w   do_initialise_music_player      ; $00069100
Stop_Player
L00068f84           bra.w   do_silence_all_audio            ; $00069114
Init_SFX_1
L00068f88           bra.w   do_init_sfx_channels            ; $00069168
Init_SFX_2
L00068f8c           bra.w   do_init_sfx_channels            ; $00069168
Init_Song
L00068f90           bra.w   do_init_song                    ; $000691ce
Init_SFX
L00068f94           bra.w   do_play_sfx                     ; $000691ac
Play_Sounds
L00068f98           bra.w   do_play_sounds                  ; $0006928e

L00068F9C   dc.w    $FFFF,$FFFF,$0000,$0101,$0000,$0000,$0000,$0000     ;................
L00068FAC   dc.w    $0000,$0000,$0000,$0000,$0000,$0000,$0000,$0000     ;................
L00068FBC   dc.w    $0000,$0000,$0000,$0000,$0000,$0000,$0000,$0000     ;................
L00068FCC   dc.w    $0000,$0000,$0000,$0000,$0000,$0000,$0000,$0000     ;................
L00068FDC   dc.w    $0000,$0000,$0000,$0000,$0000,$0000,$0000,$0000     ;................
L00068FEC   dc.w    $0000,$0000,$0000,$0000,$0000,$0000,$0001,$0000     ;................
L00068FFC   dc.w    $0000,$0000,$0000,$0000,$0000,$0000,$0000,$0000     ;................
L0006900C   dc.w    $0000,$0000,$0000,$0000,$0000,$0000,$0000,$0000     ;................
L0006901C   dc.w    $0000,$0000,$0000,$0000,$0000,$0000,$0000,$0000     ;................
L0006902C   dc.w    $0000,$0000,$0000,$0000,$0000,$0000,$0000,$0000     ;................
L0006903C   dc.w    $0000,$0000,$0000,$0000,$0000,$0000,$0000,$0000     ;................
L0006904C   dc.w    $0000,$0002,$0000,$0000,$0000,$0000,$0000,$0000     ;................
L0006905C   dc.w    $0000,$0000,$0000,$0000,$0000,$0000,$0000,$0000     ;................
L0006906C   dc.w    $0000,$0000,$0000,$0000,$0000,$0000,$0000,$0000     ;................
L0006907C   dc.w    $0000,$0000,$0000,$0000,$0000,$0000,$0000,$0000     ;................
L0006908C   dc.w    $0000,$0000,$0000,$0000,$0000,$0000,$0000,$0000     ;................
L0006909C   dc.w    $0000,$0000,$0000,$0000,$0004,$0000,$0000,$0000     ;................
L000690AC   dc.w    $0000,$0000,$0000,$0000,$0000,$0000,$0000,$0000     ;................
L000690BC   dc.w    $0000,$0000,$0000,$0000,$0000,$0000,$0000,$0000     ;................
L000690CC   dc.w    $0000,$0000,$0000,$0000,$0000,$0000,$0000,$0000     ;................
L000690DC   dc.w    $0000,$0000,$0000,$0000,$0000,$0000,$0000,$0000     ;................
L000690EC   dc.w    $0000,$0000,$0000,$0000,$0000,$0000,$0000,$0008     ;................
L000690FC   dc.w    $0000,$0000,$41F9,$0006,$9D20,$43F9,$0006,$9BC8     ;....A.... C.....


do_initialise_music_player
L00069100           lea.l   L00069d20,a0
L00069106           lea.l   L00069bc8,a1
L0006910c           bsr.w   L00069990
L00069110           bra.w   L00069114 


do_silence_all_audio
L00069114           movem.l d0/a0-a1,-(a7)
L00069118           move.b  #$00,L00068fa2
L00069120           move.b  #$00,L00068fa3
L00069128           lea.l   L00068fa4,a0
L0006912e           lea.l   L00dff0a8,a1
L00069134           bsr.b   L0006914a
L00069136           bsr.b   L0006914a
L00069138           bsr.b   L0006914a
L0006913a           bsr.b   L0006914a
L0006913c           move.w  #$0000,L00068fa0
L00069144           movem.l (a7)+,d0/a0-a1
L00069148           rts  


L0006914a           move.w  #$0000,(a0)
L0006914e           move.w  #$0001,$004a(a0)
L00069154           move.w  #$0000,$004c(a0)
L0006915a           move.w  #$0000,(a1)
L0006915e           adda.w  #$0056,a0
L00069162           adda.w  #$0010,a1
L00069166           rts 


do_init_sfx_channels
L00069168           movem.l d0/d7/a0-a2,-(a7)
L0006916c           subq.w  #$01,d0
L0006916e           bmi.b   L00069176
L00069170           cmp.w   #$000f,d0
L00069174           bcs.b   L0006917a
L00069176           bsr.b   L00069114
L00069178           bra.b   L000691a6


L0006917a           lea.l   L0007bf2c,a2
L00069180           asl.w   #$03,d0
L00069182           adda.w  d0,a2
L00069184           lea.l   L00068fa4,a0
L0006918a           lea.l   L00dff0a8,a1
L00069190           moveq   #$03,d7
L00069192           tst.w   (a2)+ 
L00069194           bne.b   L000691a0 
L00069196           adda.w  #$0056,a0
L0006919a           adda.w  #$0010,a1
L0006919e           bra.b   L000691a2 
L000691a0           bsr.b   L0006914a
L000691a2           dbf.w   d7,L00069192
L000691a6           movem.l (a7)+,d0/d7/a0-a2
L000691aa           rts  


do_play_sfx
L000691ac           tst.w   L000690a6 
L000691b2           beq.b   L000691bc a
L000691b4           cmp.b   L00068fa3,d0
L000691ba           bcs.b   L000691cc
L000691bc           movem.l d0/d7/a0-a2,-(a7)
L000691c0           move.w  #$4000,d1
L000691c4           move.b  d0,L00068fa3 
L000691ca           bra.b   L000691dc
L000691cc           rts  


do_init_song
L000691ce           movem.l d0/d7/a0-a2,-(a7)
L000691d2           move.w  #$8000,d1
L000691d6           move.b  d0,L00068fa2 
L000691dc           clr.w   L000690fe 
L000691e2           subq.w  #$01,d0
L000691e4           bmi.b   L000691ec
L000691e6           cmp.w   #$000f,d0
L000691ea           bcs.b   L000691f4
L000691ec           bsr.w   L00069114
L000691f0           bra.w   L00069288 
L000691f4           lea.l   L0007bf2c,a0
L000691fa           asl.w   #$03,d0
L000691fc           adda.w  d0,a0
L000691fe           lea.l   L00068fa4,a1
L00069204           moveq   #$03,d7
L00069206           move.w  (a0)+,d0
L00069208           beq.b   L0006927a
L0006920a           lea.l   -$02(a0,d0.w),a2        ;$fe
L0006920e           moveq   #$00,d0
L00069210           move.w  d0,$004c(a1)
L00069214           move.l  d0,$0002(a1)
L00069218           move.l  d0,$000a(a1)
L0006921c           move.b  d0,$0013(a1)
L00069220           move.b  #$01,$0012(a1)
L00069226           move.w  d1,(a1)
L00069228           move.b  (a2)+,d0
L0006922a           bpl.b   L0006925e
L0006922c           sub.b   #$80,d0
L00069230           bne.b   L00069240
L00069232           movea.l $0002(a1),a2
L00069236           cmpa.w  #$0000,a2
L0006923a           bne.b   L00069228
L0006923c           clr.w   (a1)
L0006923e           bra.b   L0006927a
L00069240           subq.b  #$01,d0
L00069242           bne.b   L0006924a
L00069244           move.l  a2,$0002(a1)
L00069248           bra.b   L00069228


L0006924a           subq.b  #$01,d0
L0006924c           bne.b   L00069254
L0006924e           move.b  (a2)+,$0013(a1)
L00069252           bra.b   L00069228 
L00069254           subq.b  #$01,d0
L00069256           bne.b   L00069228
L00069258           move.b  (a2)+,$0012(a1)
L0006925c           bra.b   L00069228 

L0006925e           move.l  a2,$0006(a1)
L00069262           lea.l   L0007c008,a2
L00069268           ext.w   d0
L0006926a           add.w   d0,d0
L0006926c           adda.w  d0,a2
L0006926e           adda.w  (a2),a2
L00069270           move.l  a2,$000e(a1)
L00069274           move.w  #$0001,$0052(a1)
L0006927a           lea.l   $0056(a1),a1
L0006927e           dbf.w   d7,L00069206
L00069282           or.w    d1,L00068fa0
L00069288           movem.l (a7)+,d0/d7/a0-a2
L0006928c           rts  


do_play_sounds
L0006928e           lea.l   $00dff000,a6
L00069294           lea.l   L00069b88,a5
L0006929a           clr.w   L000690fc
L000692a0           tst.w   L00068fa0
L000692a6           beq.b   L00069304
L000692a8           addq.w  #$01,L000690fe
L000692ae           clr.w   L00068fa0
L000692b4           lea.l   L00068fa4,a4
L000692ba           move.w  (a4),d7
L000692bc           beq.b   L000692c8
L000692be           bsr.b   L00069312
L000692c0           move.w  d7,(a4)
L000692c2           or.w    d7,L00068fa0
L000692c8           lea.l   L00068ffa,a4
L000692ce           move.w  (a4),d7
L000692d0           beq.b   L000692dc
L000692d2           bsr.b   L00069312
L000692d4           move.w  d7,(a4)
L000692d6           or.w    d7,L00068fa0
L000692dc           lea.l   L00069050,a4
L000692e2           move.w  (a4),d7
L000692e4           beq.b   L000692f0
L000692e6           bsr.b   L00069312
L000692e8           move.w  d7,(a4)
L000692ea           or.w    d7,L00068fa0
L000692f0           lea.l   L000690a6,a4
L000692f6           move.w  (a4),d7
L000692f8           beq.b   L00069304
L000692fa           bsr.b   L00069312
L000692fc           move.w  d7,(a4)
L000692fe           or.w    d7,L00068fa0
L00069304           and.w   #$c000,L00068fa0 
L0006930c           bsr.w   L00069806
L00069310           rts 


L00069312           tst.w   $0052(a4)
L00069316           beq.w   L00069666
L0006931a           subq.w  #$01,$0052(a4)
L0006931e           bne.w   L00069666
L00069322           movea.l $000e(a4),a3
L00069326           bclr.l  #$0007,d7

L0006932a           move.b  (a3)+,d0
L0006932c           bpl.w   L00069512
L00069330           bclr.l  #$0003,d7
L00069334           cmp.b   #$a0,d0
L00069338           bcc.b   L0006932a
L0006933a           lea.l   cmd_jump_table(pc),a0       ;L00069350(pc),a0
L0006933e           sub.b   #$80,d0
L00069342           ext.w   d0
L00069344           add.w   d0,d0
L00069346           adda.w  d0,a0
L00069348           move.w  (a0),d0
L0006934a           beq.b   L0006932a
L0006934c           jmp     $00(a0,d0.w)


; jump table offsets from L00069350 (32 music commands)
cmd_jump_table   
L00069350   dc.w    music_command_01-(cmd_jump_table+00)        ;$00069350 + $0040 = $00069390 - CMD 01   
L00069352   dc.w    music_command_02-(cmd_jump_table+02)        ;$00069352 + $00BA = $0006940C - CMD 02
L00069354   dc.w    music_command_03-(cmd_jump_table+04)        ;$00069354 + $00C0 = $00069414 - CMD 03   
L00069356   dc.w    music_command_04-(cmd_jump_table+06)        ;$00069356 + $00C2 = $00069418 - CMD 04   
L00069358   dc.w    music_command_05-(cmd_jump_table+08)        ;$00069358 + $00C4 = $0006941C - CMD 05   
L0006935a   dc.w    music_command_06-(cmd_jump_table+10)        ;$0006935a + $00CE = $00069428 - CMD 06   
L0006935c   dc.w    music_command_07-(cmd_jump_table+12)        ;$0006935c + $00D4 = $00069430 - CMD 07   
L0006935e   dc.w    music_command_08-(cmd_jump_table+14)        ;$0006935e + $00DC = $0006943A - CMD 08  
L00069360   dc.w    music_command_09-(cmd_jump_table+16)        ;$00069360 + $00EA = $0006944A - CMD 09   
L00069362   dc.w    music_command_10-(cmd_jump_table+18)        ;$00069362 + $00F8 = $0006945A - CMD 10   
L00069364   dc.w    music_command_11-(cmd_jump_table+20)        ;$00069364 + $010A = $0006946E - CMD 11   
L00069366   dc.w    music_command_12-(cmd_jump_table+22)        ;$00069366 + $0140 = $000694A6 - CMD 12   
L00069368   dc.w    music_command_13-(cmd_jump_table+24)        ;$00069368 + $0156 = $000694BE - CMD 13   
L0006936a   dc.w    music_command_14-(cmd_jump_table+26)        ;$0006936a + $010C = $00069476 - CMD 14   
L0006936c   dc.w    music_command_15-(cmd_jump_table+28)        ;$0006936c + $0132 = $0006949E - CMD 15   
L0006936e   dc.w    music_command_16-(cmd_jump_table+30)        ;$0006936e + $0158 = $000694C6 - CMD 16  
L00069370   dc.w    music_command_17-(cmd_jump_table+32)        ;$00069370 + $016E = $000694DE - CMD 17   
L00069372   dc.w    $0000                                       ;$00069372 + $0000 = $00000000 - CMD 18   
L00069374   dc.w    $0000                                       ;$00069374 + $0000 = $00000000 - CMD 19   
L00069376   dc.w    $0000                                       ;$00069376 + $0000 = $00000000 - CMD 20   
L00069378   dc.w    $0000                                       ;$00069378 + $0000 = $00000000 - CMD 21   
L0006937a   dc.w    $0000                                       ;$0006937a + $0000 = $00000000 - CMD 22   
L0006937c   dc.w    $0000                                       ;$0006937c + $0000 = $00000000 - CMD 23   
L0006937e   dc.w    $0000                                       ;$0006937e + $0000 = $00000000 - CMD 24  
L00069380   dc.w    $0000                                       ;$00069380 + $0000 = $00000000 - CMD 25   
L00069382   dc.w    $0000                                       ;$00069382 + $0000 = $00000000 - CMD 26   
L00069384   dc.w    $0000                                       ;$00069384 + $0000 = $00000000 - CMD 27   
L00069386   dc.w    $0000                                       ;$00069386 + $0000 = $00000000 - CMD 28   
L00069388   dc.w    $0000                                       ;$00069388 + $0000 = $00000000 - CMD 29   
L0006938a   dc.w    $0000                                       ;$0006938a + $0000 = $00000000 - CMD 30   
L0006938c   dc.w    $0000                                       ;$0006938c + $0000 = $00000000 - CMD 31  
L0006938e   dc.w    $0000                                       ;$0006938e + $0000 = $00000000 - CMD 32 



music_command_01
L00069390           movea.l $000a(a4),a3
L00069394           cmpa.w  #$0000,a3
L00069398           bne.b   L0006932a
L0006939a           movea.l $0006(a4),a3
L0006939e           move.b  -$0001(a3),d0
L000693a2           subq.b  #$01,$0012(a4)
L000693a6           bne.b   L000693f6
L000693a8           move.b  #$01,$0012(a4)
L000693ae           move.b  #$00,$0013(a4)
L000693b4           move.b  (a3)+,d0
L000693b6           bpl.b   L000693f6
L000693b8           sub.b   #$80,d0
L000693bc           bne.b   L000693d8
L000693be           movea.l $0002(a4),a3
L000693c2           cmpa.w  #$0000,a3
L000693c6           bne.b   L000693b4
L000693c8           move.w  #$0001,$004a(a4)
L000693ce           move.w  #$0000,$004c(a4)
L000693d4           moveq   #$00,d7
L000693d6           rts  


L000693d8           subq.b  #$01,d0
L000693da           bne.b   L000693e2
L000693dc           move.l  a3,$0002(a4)
L000693e0           bra.b   L000693b4
L000693e2           subq.b  #$01,d0
L000693e4           bne.b   L000693ec
L000693e6           move.b  (a3)+,$0013(a4)
L000693ea           bra.b   L000693b4

L000693ec           subq.b  #$01,d0
L000693ee           bne.b   L000693b4
L000693f0           move.b  (a3)+,$0012(a4)
L000693f4           bra.b   L000693b4

L000693f6           move.l  a3,$0006(a4)
L000693fa           lea.l   L0007c008,a3
L00069400           ext.w   d0
L00069402           add.w   d0,d0
L00069404           adda.w  d0,a3
L00069406           adda.w  (a3),a3
L00069408           bra.w   L0006932a


music_command_02
L0006940c           move.l  a3,$000a(a4)
L00069410           bra.w   L0006932a

music_command_03
L00069414           bra.w   L0006932a

music_command_04
L00069418           bra.w   L0006932a

music_command_05
L0006941c           bset.l  #$0005,d7
L00069420           move.b  (a3)+,$0051(a4)
L00069424           bra.w   L0006932a

music_command_06
L00069428           bclr.l  #$0005,d7
L0006942c           bra.w   L0006932a


music_command_07
L00069430           add.w   #$0100,$0052(a4)
L00069436           bra.w   L0006932a

music_command_08
L0006943a           bclr.l  #$0004,d7
L0006943e           bset.l  #$0007,d7
L00069442           clr.w   $004c(a4)
L00069446           bra.w   L00069650

music_command_09
L0006944a           bset.l  #$0003,d7
L0006944e           move.b  (a3)+,$0024(a4)
L00069452           move.b  (a3)+,$0025(a4)
L00069456           bra.w   L0006932a

music_command_10
L0006945a           and.w   #$fff8,d7
L0006945e           bset.l  #$0000,d7
L00069462           move.b  (a3)+,$0021(a4)
L00069466           move.b  (a3)+,$0022(a4)
L0006946a           bra.w   L0006932a

music_command_11
L0006946e           bclr.l  #$0000,d7
L00069472           bra.w   L0006932a

music_command_14
L00069476           and.w   #$fff8,d7
L0006947a           bset.l  #$0001,d7
L0006947e           lea.l   $0007be3a,a0
L00069484           moveq   #$00,d0
L00069486           move.b  (a3)+,d0
L00069488           add.w   d0,d0
L0006948a           adda.w  d0,a0
L0006948c           adda.w  (a0),a0
L0006948e           move.b  (a0)+,$0032(a4)
L00069492           move.b  (a0)+,$0030(a4)
L00069496           move.l  a0,$0028(a4)
L0006949a           bra.w   L0006932a

music_command_15
L0006949e           bclr.l  #$0001,d7
L000694a2           bra.w   L0006932a


music_command_12
L000694a6           and.w   #$fff8,d7
L000694aa           bset.l  #$0002,d7
L000694ae           move.b  (a3)+,$0036(a4)
L000694b2           move.b  (a3)+,$0034(a4)
L000694b6           move.b  (a3)+,$0035(a4)
L000694ba           bra.w   L0006932a

music_command_13
L000694be           bclr.l  #$0002,d7
L000694c2           bra.w   L0006932a

music_command_16
L000694c6           lea.l   L0007bedc,a0
L000694cc           moveq   #$00,d0
L000694ce           move.b  (a3)+,d0
L000694d0           add.w   d0,d0
L000694d2           adda.w  d0,a0
L000694d4           adda.w  (a0),a0
L000694d6           move.l  a0,$0014(a4)
L000694da           bra.w   L0006932a

music_command_17
L000694de           lea.l   $00069bb8,a0
L000694e4           moveq   #$00,d0
L000694e6           move.b  (a3)+,d0
L000694e8           asl.w   #$04,d0
L000694ea           adda.w  d0,a0
L000694ec           move.w  (a0)+,$003c(a4)
L000694f0           move.l  (a0)+,$003e(a4)
L000694f4           move.w  (a0)+,$0042(a4)
L000694f8           move.l  (a0)+,$0044(a4)
L000694fc           move.w  (a0)+,$0048(a4)
L00069500           bclr.l  #$0006,d7
L00069504           tst.w   (a0)
L00069506           beq.w   L0006932a
L0006950a           bset.l  #$0006,d7
L0006950e           bra.w   L0006932a




                ; +ve pattern command data (end of pattern command loop)
                ; IN: A4 = Sound Channel Structure
                ; IN: A3 = Next Pattern Command Ptr
                ; IN: D0 = command data
                ; IN: D7 = Channel Ctrl Bits
process_sound_commands       
L00069512           btst.l  #$0006,d7
L00069516           bne.b   L0006951c
L00069518           add.b   $0013(a4),d0
L0006951c           move.b  d0,$004f(a4)
L00069520           btst.l  #$0000,d7
L00069524           beq.b   L00069530
L00069526           add.b   $0021(a4),d0
L0006952a           move.b  $0022(a4),$0023(a4)
L00069530           move.b  d0,$0050(a4)
L00069534           ext.w   d0
L00069536           sub.w   $003c(a4),d0
L0006953a           add.w   d0,d0
L0006953c           cmp.w   #$ffd0,d0
L00069540           blt.b   L00069548
L00069542           cmp.w   #$002c,d0
L00069546           ble.b   L0006955e

L00069548           move.b  $004f(a4),d1
L0006954c           move.b  $0050(a4),d2
L00069550           move.w  $003c(a4),d3
L00069554           move.w  $0054(a4),d4
L00069558           movea.l $0006(a4),a2
L0006955c           illegal

L0006955e           move.w  $00(a5,d0.w),$004a(a4)
L00069564           btst.l  #$0002,d7
L00069568           beq.b   L000695c4 
L0006956a           move.b  $0050(a4),d0
L0006956e           add.b   $0034(a4),d0
L00069572           ext.w   d0
L00069574           sub.w   $003c(a4),d0
L00069578           add.w   d0,d0
L0006957a           cmp.w   #$ffd0,d0
L0006957e           blt.b   L00069586
L00069580           cmp.w   #$002c,d0
L00069584           ble.b   L0006959c 

L00069586           move.b  $004f(a4),d1
L0006958a           move.b  $0050(a4),d2
L0006958e           move.w  $003c(a4),d3
L00069592           move.w  $0054(a4),d4
L00069596           movea.l $0006(a4),a2
L0006959a           illegal

L0006959c           move.w  $00(a5,d0.w),d0
L000695a0           sub.w   $004a(a4),d0
L000695a4           asr.w   #$01,d0
L000695a6           ext.l   d0
L000695a8           move.b  $0035(a4),d1
L000695ac           ext.w   d1
L000695ae           divs.w  d1,d0
L000695b0           move.w  d0,$003a(a4)
L000695b4           move.b  d1,$0039(a4)

L000695b8           add.b   d1,d1
L000695ba           move.b  d1,$0038(a4)
L000695be           move.b  $0036(a4),$0037(a4)
L000695c4           btst.l  #$0003,d7
L000695c8           beq.b   L0006961a
L000695ca           move.b  $0050(a4),d0
L000695ce           add.b   $0024(a4),d0
L000695d2           ext.w   d0
L000695d4           sub.w   $003c(a4),d0
L000695d8           add.w   d0,d0
L000695da           cmp.w   #$ffd0,d0
L000695de           blt.b   L000695e6
L000695e0           cmp.w   #$002c,d0
L000695e4           ble.b   L000695fc

L000695e6           move.b  $004f(a4),d1
L000695ea           move.b  $0050(a4),d2
L000695ee           move.w  $003c(a4),d3
L000695f2           move.w  $0054(a4),d4
L000695f6           movea.l $0006(a4),a2
L000695fa           illegal


L000695fc           move.w  $00(a5,d0.w),d0
L00069600           sub.w   $004a(a4),d0
L00069604           ext.l   d0
L00069606           moveq   #$00,d1
L00069608           move.b  $0025(a4),d1
L0006960c           divs.w  d1,d0
L0006960e           move.w  d0,$0026(a4)
L00069612           neg.w   d0
L00069614           muls.w  d1,d0
L00069616           sub.w   d0,$004a(a4)
L0006961a           btst.l  #$0001,d7
L0006961e           beq.b   L00069632
L00069620           move.b  #$01,$0033(a4)
L00069626           move.l  $0028(a4),(a4,$002c)
L0006962c           move.b  $0030(a4),(a4,$0031)
L00069632           bset.l  #$0004,d7
L00069636           move.l  $0014(a4),$0018(a4)
L0006963c           move.w  #$0001,$001e(a4)
L00069642           clr.w   $004c(a4)
L00069646           move.w  $0054(a4),d0
L0006964a           or.w    d0,L000690fc

; jmp destination from 'pattern command 08 ($87)'
L00069650           moveq   #$00,d0
L00069652           move.b  $0051(a4),d0
L00069656           btst.l  #$0005,d7
L0006965a           bne.b   L0006965e
L0006965c           move.b  (a3)+,d0
L0006965e           add.w   d0,$0052(a4)
L00069662           move.l  a3,$000e(a4)

; jmp destination from 'process_command_loop' when $0052(s) is not $0000
L00069666           btst.l  #$0007,d7
L0006966a           bne.w   L00069804

L0006966e           move.w  $004a(a4),d0
L00069672           btst.l  #$0003,d7
L00069676           beq.b   L0006968a
L00069678           subq.b  #$01,$0025(a4)
L0006967c           bne.b   L00069682
L0006967e           bclr.l  #$0003,d7
L00069682           sub.w   $0026(a4),d0
L00069686           bra.w   L0006975c


L0006968a           btst.l  #$0000,d7
L0006968e           beq.b   L000696d6
L00069690           subq.b  #$01,$0023(a4)
L00069694           bcc.w   L0006975c
L00069698           move.b  $004f(a4),d0
L0006969c           move.b  $0050(a4),d1
L000696a0           move.b  d0,$0050(a4)
L000696a4           ext.w   d0
L000696a6           sub.w   $003c(a4),d0
L000696aa           add.w   d0,d0
L000696ac           cmp.w   #$ffd0,d0
L000696b0           blt.b   L000696b8
L000696b2           cmp.w   #$002c,d0
L000696b6           ble.b   L000696ce
L000696b8           move.b  $004f(a4),d1
L000696bc           move.b  $0050(a4),d2
L000696c0           move.w  $003c(a4),d3
L000696c4           move.w  $0054(a4),d4
L000696c8           movea.l $0006(a4),a2
L000696cc           illegal


L000696ce           move.w  $00(a5,d0.w),d0
L000696d2           bra.w   L0006975c
L000696d6           btst.l  #$0001,d7
L000696da           beq.b   L00069738
L000696dc           subq.b  #$01,$0033(a4)
L000696e0           bne.b   L0006975c
L000696e2           movea.l $002c(a4),a0
L000696e6           move.b  (a0)+,d0
L000696e8           subq.b  #$01,$0031(a4)
L000696ec           bne.b   L000696f8
L000696ee           movea.l $0028(a4),a0
L000696f2           move.b  $0030(a4),$0031(a4)
L000696f8           move.l  a0,$002c(a4)
L000696fc           move.b  $0032(a4),$0033(a4)
L00069702           add.b   $0050(a4),d0
L00069706           ext.w   d0
L00069708           sub.w   $003c(a4),d0
L0006970c           add.w   d0,d0
L0006970e           cmp.w   #$ffd0,d0
L00069712           blt.b   L0006971a
L00069714           cmp.w   #$002c,d0
L00069718           ble.b   L00069730
L0006971a           move.b  $004f(a4),d1
L0006971e           move.b  $0050(a4),d2
L00069722           move.w  $003c(a4),d3
L00069726           move.w  $0054(a4),d4
L0006972a           movea.l $0006(a4),a2
L0006972e           illegal


L00069730           move.w  $00(a5,d0.w),d0
L00069734           bra.w   L0006975c
L00069738           btst.l  #$0002,d7
L0006973c           beq.b   L0006975c
L0006973e           subq.b  #$01,$0037(a4)
L00069742           bcc.b   L0006975c
L00069744           addq.b  #$01,$0037(a4)
L00069748           subq.b  #$01,$0039(a4)
L0006974c           bne.b   L00069758
L0006974e           neg.w   $003a(a4)
L00069752           move.b  $0038(a4),$0039(a4)
L00069758           add.w   $003a(a4),d0
L0006975c           move.w  d0,$004a(a4)
L00069760           btst.l  #$0004,d7
L00069764           beq.w   L00069804
L00069768           subq.w  #$01,$001e(a4)
L0006976c           bne.w   L000697ee
L00069770           movea.l $0018(a4),a0
L00069774           moveq   #$00,d0
L00069776           move.b  (a0)+,d0
L00069778           beq.b   L000697bc
L0006977a           bmi.b   L00069796
L0006977c           move.w  d0,$001e(a4)
L00069780           move.b  #$01,$001c(a4)
L00069786           move.b  #$01,$001d(a4)
L0006978c           move.b  (a0)+,$0020(a4)
L00069790           move.l  a0,$0018(a4)
L00069794           bra.b   L000697ee
L00069796           neg.b   d0
L00069798           move.w  d0,$001e(a4)
L0006979c           move.b  #$01,$0020(a4)
L000697a2           move.b  (a0)+,d0
L000697a4           bpl.b   L000697ac
L000697a6           neg.b   d0
L000697a8           neg.b   $0020(a4)
L000697ac           move.b  d0,$001c(a4)
L000697b0           move.b  #$01,$001d(a4)
L000697b6           move.l  a0,$0018(a4)
L000697ba           bra.b   L000697ee
L000697bc           move.b  (a0),d0
L000697be           beq.b   L000697ca
L000697c0           bpl.b   L000697c4
L000697c2           neg.b   d0
L000697c4           sub.w   $0052(a4),d0
L000697c8           bmi.b   L000697d0
L000697ca           bclr.l  #$0004,d7
L000697ce           bra.b   L00069804
L000697d0           neg.w   d0
L000697d2           move.w  d0,$001e(a4)
L000697d6           move.b  #$00,$001c(a4)
L000697dc           move.b  #$00,$001d(a4)
L000697e2           move.b  #$00,$0020(a4)
L000697e8           move.l  a0,$0018(a4)
L000697ec           bra.b   L00069804
L000697ee           subq.b  #$01,$001d(a4)
L000697f2           bne.b   L00069804
L000697f4           move.b  $001c(a4),$001d(a4)
L000697fa           move.b  $0020(a4),d0
L000697fe           ext.w   d0
L00069800           add.w   d0,$004c(a4)
L00069804           rts     




update_audio_custom_registers
L00069806           move.w  L000690fc,d0
L0006980c           beq.b   L0006987c
L0006980e           move.w  d0,$0096(a6)
L00069812           move.w  d0,d1
L00069814           lsl.w   #$07,d1
L00069816           move.w  d1,$009c(a6)
L0006981a           moveq   #$00,d2
L0006981c           moveq   #$01,d3
L0006981e           btst.l  #$0000,d0
L00069822           beq.b   L0006982c
L00069824           move.w  d3,$00a6(a6)
L00069828           move.w  d2,$00aa(a6)
L0006982c           btst.l  #$0001,d0
L00069830           beq.b   L0006983a
L00069832           move.w  d3,$00b6(a6)
L00069836           move.w  d2,$00ba(a6)
L0006983a           btst.l  #$0002,d0
L0006983e           beq.b   L00069848
L00069840           move.w  d3,$00c6(a6)
L00069844           move.w  d2,$00ca(a6)
L00069848           btst.l  #$0003,d0
L0006984c           beq.b   L00069856
L0006984e           move.w  d3,$00d6(a6)
L00069852           move.w  d2,$00da(a6)
L00069856           move.w  $001e(a6),d2
L0006985a           and.w   d1,d2
L0006985c           cmp.w   d1,d2
L0006985e           bne.b   L00069856
L00069860           moveq   #$02,d2
L00069862           move.w  $0006(a6),d3
L00069866           and.w   #$ff00,d3
L0006986a           move.w  $0006(a6),d4
L0006986e           and.w   #$ff00,d4
L00069872           cmp.w   d4,d3
L00069874           beq.b   L0006986a
L00069876           move.w  d4,d3
L00069878           dbf.w   d2,L0006986a

L0006987c           move.w  L00068f9c,d1
L00069882           move.w  L00068f9e,d2
L00069888           lea.l   L00068fa4,a0
L0006988e           move.w  d1,d3
L00069890           btst.b  #$0006,(a0)
L00069894           beq.b   L00069898
L00069896           move.w  d2,d3
L00069898           and.w   $004c(a0),d3
L0006989c           move.w  d3,$00a8(a6) 
L000698a0           move.w  $004a(a0),$00a6(a6)
L000698a6           btst.l  #$0000,d0
L000698aa           beq.b   L000698ba
L000698ac           move.w  $0042(a0),$00a4(a6)
L000698b2           move.l  $003e(a0),$00a0(a6)
L000698b8           bra.b   L000698c6
L000698ba           move.w  $0048(a0),$00a4(a6)
L000698c0           move.l  $0044(a0),$00a0(a6)
L000698c6           lea.l   L00068ffa,a0
L000698cc           move.w  d1,d3
L000698ce           btst.b  #$0006,(a0)
L000698d2           beq.b   L000698d6
L000698d4           move.w  d2,d3
L000698d6           and.w   $004c(a0),d3
L000698da           move.w  d3,$00b8(a6)
L000698de           move.w  $004a(a0),$00b6(a6)
L000698e4           btst.l  #$0001,d0
L000698e8           beq.b   L000698f8
L000698ea           move.w  $0042(a0),$00b4(a6)
L000698f0           move.l  $003e(a0),$00b0(a6)
L000698f6           bra.b   L00069904
L000698f8           move.w  $0048(a0),$00b4(a6)
L000698fe           move.l  $0044(a0),$00b0(a6)
L00069904           lea.l   L00069050,a0
L0006990a           move.w  d1,d3
L0006990c           btst.b  #$0006,(a0)
L00069910           beq.b   L00069914
L00069912           move.w  d2,d3
L00069914           and.w   $004c(a0),d3
L00069918           move.w  d3,$00c8(a6)
L0006991c           move.w  $004a(a0),$00c6(a6)
L00069922           btst.l  #$0002,d0
L00069926           beq.b   L00069936
L00069928           move.w  $0042(a0),$00c4(a6)
L0006992e           move.l  $003e(a0),$00c0(a6)
L00069934           bra.b   L00069942
L00069936           move.w  $0048(a0),$00c4(a6)
L0006993c           move.l  $0044(a0),$00c0(a6)
L00069942           lea.l   L000690a6,a0
L00069948           move.w  d1,d3
L0006994a           btst.b  #$0006,(a0)
L0006994e           beq.b   L00069952
L00069950           move.w  d2,d3
L00069952           and.w   $004c(a0),d3
L00069956           move.w  d3,$00d8(a6)
L0006995a           move.w  $004a(a0),$00d6(a6)
L00069960           btst.l  #$0003,d0
L00069964           beq.b   L00069974
L00069966           move.w  $0042(a0),$00d4(a6)
L0006996c           move.l  $003e(a0),$00d0(a6)
L00069972           bra.b   L00069980
L00069974           move.w  $0048(a0),$00d4(a6)
L0006997a           move.l  $0044(a0),$00d0(a6)
L00069980           or.w    #$8000,d0
L00069984           move.w  d0,$0096(a6)
L00069988           clr.w   L000690fc
L0006998e           rts  


                ;------------------- initialise music samples --------------------
                ; extract sample data ptrs and lengths from the IFF sample
                ; data.
                ;
                ; IN: a0    - music sample table address $4D52 - default_sample_data
                ; IN: a1    - music/song instrument data $4BFA - instrument_data
                ;
L00069990           move.l  (a0)+,d0
L00069992           beq.b   L000699ae
L00069994           move.w  (a0)+,(a1) 
L00069996           move.w  (a0)+,$000e(a1)
L0006999a           move.l  a0,-(a7)
L0006999c           lea.l   -8(a0,d0.l),a0      ; $f8
L000699a0           move.l  $0004(a0),d0
L000699a4           addq.l  #$08,d0
L000699a6           bsr.w   L000699b0
L000699aa           movea.l (a7)+,a0
L000699ac           bra.b   L00069990
L000699ae           rts     


                ; ------------------ process instrument  ----------------
                ; IN: A0 = ptr to start of 'FORM' block of sample data.
                ; IN: A1 = ptr to Instrument Entry in Music Data.
                ; IN: D0 = length of sample including headers.
                ;
L000699b0           move.l  a1,-(a7)
L000699b2           bsr.w   L000699f4
L000699b6           movea.l (a7)+,a1
L000699b8           addq.l  #$02,a1
L000699ba           movea.l L00069b08,a0
L000699c0           move.l  (a0)+,d0
L000699c2           bclr.l  #$0000,d0
L000699c6           move.l  (a0)+,d1
L000699c8           bclr.l  #$0000,d1
L000699cc           movea.l L00069b30,a0
L000699d2           move.l  a0,(a1)+
L000699d4           adda.l  d0,a0
L000699d6           add.l   d1,d0
L000699d8           lsr.l   #$01,d0
L000699da           move.w  d0,(a1)+
L000699dc           tst.l   d1
L000699de           bne.b   L000699e8
L000699e0           lea.l   L00069d08,a0
L000699e6           moveq   #$02,d1
L000699e8           move.l  a0,(a1)+
L000699ea           lsr.l   #$01,d1
L000699ec           move.w  d1,(a1)+
L000699ee           addq.l  #$02,a1
L000699f0           rts  



; ************************************************************************************************************
; ************************************************************************************************************
; ************************************************************************************************************
;       START OF IFF '8SVX' FILE PROCESSING
; ************************************************************************************************************
; ************************************************************************************************************
; ************************************************************************************************************


                ;------------------ process sample data --------------------------
                ; Walks through the IFF 8SVX file format, storing the pointers to
                ; the BODY and VHDL chunks in the variables.
                ;
                ; Also, sets the error/status 'sample_status' - 0 = success
                ;
                ; IN: A0 = ptr to start of 'FORM' or 'CAT ' block of sample data.
                ; IN: A1 = ptr to Instrument Entry in Music Data.
                ; IN: D0 = remaining length of sample file including headers.
                ;
L000699f2           dc.w    $0000

L000699f4           clr.w   L000699f2
L000699fa           movem.l d0/a0,-(a7)
L000699fe           bra.w   L00069a02
L00069a02           tst.l   d0
L00069a04           beq.b   L00069a10
L00069a06           move.l  (a0)+,d1
L00069a08           subq.l  #$04,d0
L00069a0a           bsr.w   L00069a16
L00069a0e           bra.b   L00069a02
L00069a10           movem.l (a7)+,d0/a0
L00069a14           rts  


                ;------------------ process sample chunk ------------------
                ; process IFF sample data, top level of file structure.
                ;
                ; IN: A0 = ptr to length of data.
                ; IN: A1 = ptr to Instrument Entry in Music Data.
                ; IN: D0.l = length of remaining data including length data.
                ; IN: D1.l = chunk identifier, e.g. FORM, CAT etc
                ;
L00069a16           cmp.l   #'FORM',d1              ;#$464f524d,d1
L00069a1c           beq.w   L00069a74 
L00069a20           cmp.l   #'CAT ',d1              ;#$43415420,d1
L00069a26           beq.w   L00069a36
L00069a2a           move.w  #$0001,L000699f2
L00069a32           clr.l   d0
L00069a34           rts  



                ;--------------------- process CAT chunk --------------------------
                ; skips header and continues processing any further chunks 
                ; that are nested inside the CAT Chunk, data.
                ;
                ; IN: A0 = ptr to length of chunk data.
                ; IN: A1 = ptr to Instrument Entry in Music Data.
                ; IN: D0.l = length of remaining data including length data.
                ; IN: D1.l = chunk identifier, e.g. FORM, CAT etc
                ;
L00069a36           movem.l d0/a0,-(a7)
L00069a3a           move.l  (a0)+,d0
L00069a3c           move.l  d0,d1
L00069a3e           btst.l  #$0000,d1
L00069a42           beq.b   L00069a46
L00069a44           addq.l  #$01,d1
L00069a46           addq.l  #$04,d1
L00069a48           add.l   d1,$0004(a7)
L00069a4c           sub.l   d1,(a7)
L00069a4e           addq.l  #$04,(a0)
L00069a50           subq.l  #$04,d0
L00069a52           bra.b   L00069a02


                ;------------------- process LIST chunk -----------------
                ; skip the list chunk, and continue processing
                ;
                ; IN: A0 = ptr to length of data.
                ; IN: A1 = ptr to Instrument Entry in Music Data.
                ; IN: D0.l = length of remaining data.
                ; IN: D1.l = chunk identifier, e.g. FORM, CAT etc
                ;
L00069a54           movem.l d0/a0,-(a7)
L00069a58           move.l  (a0)+,d0
L00069a5a           move.l  d0,d1
L00069a5c           btst.l  #$0000,d1
L00069a60           beq.b   L00069a64
L00069a62           addq.l  #$01,d1
L00069a64           addq.l  #$04,d1
L00069a66           add.l   d1,$0004(a7)
L00069a6a           sub.l   d1,(a7)
L00069a6c           nop
L00069a6e           movem.l (a7)+,d0/a0
L00069a72           rts  



                ;---------------- process FORM chunk ------------------
                ; Expects to find an '8SVX' inner chunk of data.
                ; If not, then sets error/status flag = $0002
                ;
                ; IN: A0 = ptr to length of data.
                ; IN: A1 = ptr to Instrument Entry in Music Data.
                ; IN: D0.l = length of remaining data including length field.
                ; IN: D1.l = chunk identifier, e.g. FORM, CAT etc
                ;
L00069a74           movem.l d0/a0,-(a7)
L00069a78           move.l  (a0)+,d0
L00069a7a           move.l  d0,d1
L00069a7c           btst.l  #$0000,d1
L00069a80           beq.b   L00069a84
L00069a82           addq.l  #$01,d1
L00069a84           addq.l  #$04,d1
L00069a86           add.l   d1,$0004(a7)
L00069a8a           sub.l   d1,(a7)
L00069a8c           move.l  (a0)+,d1
L00069a8e           subq.l  #$04,d0
L00069a90           cmp.l   #'8SVX',d1              ;#$38535658,d1
L00069a96           beq.w   L00069aa8
L00069a9a           move.w  #$0002,L000699f2
L00069aa2           movem.l (a7)+,d0/a0
L00069aa6           rts



                ;------------------ process 8SVX chunk ---------------------
                ; loops through sample data until no bytes remaining.
                ; processes inner chunks of 8SVX chunk, including:-
                ;  - VHDL, BODY, NAME, ANNO
                ;
                ; IN: A0 = ptr to length of data.
                ; IN: A1 = ptr to Instrument Entry in Music Data.
                ; IN: D0.l = length of remaining data.
                ; IN: D1.l = chunk identifier, i.e '8SVX'
                ;
L00069aa8           tst.l   d0
L00069aaa           beq.b   L00069ab6
L00069aac           move.l  (a0)+,d1
L00069aae           subq.l  #$04,d0
L00069ab0           bsr.w   L00069abc
L00069ab4           bra.b   L00069aa8
L00069ab6           movem.l (a7)+,d0/a0
L00069aba           rts  


                ;---------------- process inner 8SVX chunk --------------
                ; process data held inside the 8SVX chunk, this is only
                ; concerned with the VHDR and BODY chunks. it skips
                ; other chunks such as the NAME, ANNO meta data chunks.
                ;
                ; IN: A0 = ptr to length of data.
                ; IN: A1 = ptr to Instrument Entry in Music Data.
                ; IN: D0 = length of remaining data.
                ; IN: D1.l = chunk identifier, e.g. FORM, CAT etc
                ;
L00069abc           cmp.l   #'FORM',d1          ;#$464f524d,d1
L00069ac2           beq.b   L00069a74 
L00069ac4           cmp.l   #'LIST',d1          ;#$4c495354,d1
L00069aca           beq.b   L00069a54
L00069acc           cmp.l   #'CAT ',d1          ;#$43415420,d1
L00069ad2           beq.w   L00069a36 
L00069ad6           cmp.l   #'VHDR',d1          ;#$56484452,d1
L00069adc           beq.w   L00069b0c 
L00069ae0           cmp.l   #'BODY',d1          ;#$424f4459,d1
L00069ae6           beq.w   L00069b34
L00069aea           movem.l d0/a0,-(a7)
L00069aee           move.l  (a0)+,d0
L00069af0           move.l  d0,d1
L00069af2           btst.l  #$0000,d1
L00069af6           beq.b   L00069afa
L00069af8           addq.l  #$01,d1
L00069afa           addq.l  #$04,d1
L00069afc           add.l   d1,$0004(a7)
L00069b00           sub.l   d1,(a7)
L00069b02           movem.l (a7)+,d0/a0
L00069b06           rts  



                ;-------------------- process VHDR chunk ----------------------
                ; stores address of VHDR chunk in variable 'sample_vhdr_ptr'
                ;
                ; IN: A0 = ptr to length of data.
                ; IN: A1 = ptr to Instrument Entry in Music Data.
                ; IN: D0 = length of remaining data.
                ; IN: D1.l = chunk identifier, e.g. FORM, CAT etc
                ;
L00069b08           dc.l    $00000000

L00069b0c           movem.l d0/a0,-(a7)
L00069b10           move.l  (a0)+,d0
L00069b12           move.l  d0,d1
L00069b14           btst.l  #$0000,d1
L00069b18           beq.b   L00069b1c
L00069b1a           addq.l  #$01,d1
L00069b1c           addq.l  #$04,d1
L00069b1e           add.l   d1,$0004(a7)
L00069b22           sub.l   d1,(a7)
L00069b24           move.l  a0,L00069b08
L00069b2a           movem.l (a7)+,d0/a0
L00069b2e           rts  



                ;------------------------- process body chunk ------------------------
                ; store address of the raw sample data in variable 'sample_body_ptr'
                ;
                ; IN: A0 = ptr to length of data.
                ; IN: A1 = ptr to Instrument Entry in Music Data.
                ; IN: D0 = length of remaining data.
                ; IN: D1.l = chunk identifier, e.g. FORM, CAT etc
                ;
L00069b30           dc.L    $00000000

L00069b34           movem.l d0/a0,-(a7)
L00069b38           move.l  (a0)+,d0
L00069b3a           move.l  d0,d1
L00069b3c           btst.l  #$0000,d1
L00069b40           beq.b   L00069b44
L00069b42           addq.l  #$01,d1
L00069b44           addq.l  #$04,d1
L00069b46           add.l   d1,$0004(a7)
L00069b4a           sub.l   d1,(a7)
L00069b4c           move.l  a0,L00069b30
L00069b52           movem.l (a7)+,d0/a0
L00069b56           rts  



; ************************************************************************************************************
; ************************************************************************************************************
; ************************************************************************************************************
;       END OF IFF '8SVX' FILE PROCESSING
; ************************************************************************************************************
; ************************************************************************************************************
; ************************************************************************************************************



                ; --------------------- Note Period Table ------------------------
                ;       - audio channel period values - note frequenies
                ;       - indexes to $00004bba clamped to -48 bytes or +44 bytes to remain in table range
                ;       - I've got the table running B to B (may be I'm a semi-tone out C to C - most likely) 
note_period_table      
L00069B58       dc.w    $06FE,$0699,$063B,$05E1,$058D,$053D,$04F2,$04AB     ;.....;.....=....
L00069B68       dc.w    $0467,$0428,$03EC,$03B4,$037F,$034D,$031D,$02F1     ;.g.(.......M....
L00069B78       dc.w    $02C6,$029E,$0279,$0255,$0234,$0214,$01F6,$01DA     ;.....y.U.4......

L00069B88       dc.w    $01BF,$01A6,$018F,$0178,$0163,$014F,$013C,$012B     ;.......x.c.O.<.+
L00069B98       dc.w    $011A,$010A,$00FB,$00ED,$00E0,$00D3,$00C7,$00BC     ;................
L00069BA8       dc.w    $00B2,$00A8,$009E,$0095,$008D,$0085,$007E,$0077     ;.............~.w


command_17_data
L00069BB8       dc.w    $0021,$0006,$9D0A,$000B,$0006,$9D0A,$000B,$0000     ;.!..............

instrument_data
L00069BC8       dc.w    $0000,$0000,$0000,$0000,$0000,$0000,$0000,$0000     ;................
L00069BD8       dc.w    $0000,$0000,$0000,$0000,$0000,$0000,$0000,$0000     ;................
L00069BE8       dc.w    $0000,$0000,$0000,$0000,$0000,$0000,$0000,$0000     ;................
L00069BF8       dc.w    $0000,$0000,$0000,$0000,$0000,$0000,$0000,$0000     ;................
L00069C08       dc.w    $0000,$0000,$0000,$0000,$0000,$0000,$0000,$0000     ;................
L00069C18       dc.w    $0000,$0000,$0000,$0000,$0000,$0000,$0000,$0000     ;................
L00069C28       dc.w    $0000,$0000,$0000,$0000,$0000,$0000,$0000,$0000     ;................
L00069C38       dc.w    $0000,$0000,$0000,$0000,$0000,$0000,$0000,$0000     ;................
L00069C48       dc.w    $0000,$0000,$0000,$0000,$0000,$0000,$0000,$0000     ;................
L00069C58       dc.w    $0000,$0000,$0000,$0000,$0000,$0000,$0000,$0000     ;................
L00069C68       dc.w    $0000,$0000,$0000,$0000,$0000,$0000,$0000,$0000     ;................
L00069C78       dc.w    $0000,$0000,$0000,$0000,$0000,$0000,$0000,$0000     ;................
L00069C88       dc.w    $0000,$0000,$0000,$0000,$0000,$0000,$0000,$0000     ;................
L00069C98       dc.w    $0000,$0000,$0000,$0000,$0000,$0000,$0000,$0000     ;................
L00069CA8       dc.w    $0000,$0000,$0000,$0000,$0000,$0000,$0000,$0000     ;................
L00069CB8       dc.w    $0000,$0000,$0000,$0000,$0000,$0000,$0000,$0000     ;................
L00069CC8       dc.w    $0000,$0000,$0000,$0000,$0000,$0000,$0000,$0000     ;................
L00069CD8       dc.w    $0000,$0000,$0000,$0000,$0000,$0000,$0000,$0000     ;................
L00069CE8       dc.w    $0000,$0000,$0000,$0000,$0000,$0000,$0000,$0000     ;................
L00069CF8       dc.w    $0000,$0000,$0000,$0000,$0000,$0000,$0000,$0000     ;................

silient_repeat
L00069D08       dc.w    $0000 

L00069D0A       dc.w    $0074,$60DC,$82BB,$457E,$24A0,$8C00,$7460           ;...t`...E~$...t`
L00069D18       dc.w    $DC82,$BB45,$7E24,$A08C 


                ; ------ music sample data table (12 sample offsets & 2 word params) ------
                ; 12 sound samples in IFF 8SVX format.
                ; Table of address offsets below, not sure what the additional two 16 bit 
                ; parameters that follow the offset represent yet. maybe volume and something else.
                ;
raw_sample_data_table
L00069D20       dc.l    $0000$009C
                dc.w    $0030,$0000 
L00069D28       dc.l    $000024A8
                dc.w    $0032,$0000
                dc.l    $0000365E
                dc.w    $000C,$FFFF 
L00069D38       dc.l    $00004AC2
                dc.w    $0018,$FFFF
                dc.l    $00005F72
                dc.w    $0021,$0000 
L00069D48       dc.l    $00006B64
                dc.w    $002D,$0000
                dc.l    $00007F2A
                dc.w    $0035,$FFFF 
L00069D58       dc.l    $000081E0
                dc.w    $0037,$FFFF
                dc.l    $00008DDE
                dc.w    $0018,$0000 
L00069D68       dc.l    $00009F32
                dc.w    $0018,$0000
                dc.l    $0000C094
                dc.w    $0018,$0000 
L00069D78       dc.l    $0000C7EA
                dc.w    $0018,$0000
                dc.l    $0000D0F2
                dc.w    $0018,$0000 
L00069D88       dc.l    $0000DF42
                dc.w    $0018,$0000
                dc.l    $0000E480
                dc.w    $0018,$0000 
L00069D98       dc.l    $0000F0CA
                dc.w    $0018,$0000
                dc.l    $000109E8
                dc.w    $0018,$0000 
L00069DA8       dc.l    $00011364
                dc.w    $0018,$0000
                dc.l    $00011CEE
                dc.w    $0018,$0000 
L00069DB8       dc.w    $0000,$0000 


; Sample 01
sample_file_01
00069DBC 464F 524D 0000 240C 3853 5658 5648 4452  FORM..$.8SVXVHDR
00069DCC 0000 0014 0000 1916 0000 0A96 0000 0020  ...............
00069DDC 20AB 0100 0001 0000 4E41 4D45 0000 0014   .......NAME....
00069DEC 4352 554E 4348 4755 4954 4152 2D43 3400  CRUNCHGUITAR-C4.
00069DFC 0000 0000 414E 4E4F 0000 0014 4175 6469  ....ANNO....Audi
00069E0C 6F20 4D61 7374 6572 2049 4900 0000 0000  o Master II.....
00069E1C 424F 4459 0000 23AC 0101 0101 0001 0203  BODY..#.........
00069E2C 0303 0300 0302 FCFE 050C 0C02 F6F6 0005  ................
00069E3C 03FD FE02 E4B3 EEF4 D4F4 0304 1D56 6727  .............Vg'
00069E4C 1E39 1CEF EA00 E2CA EFFB D8DC E9EF 0924  .9.............$
00069E5C 2F41 3F18 000E 0BF5 E4DA D9E2 E9DE D6D2  /A?.............
00069E6C E1FA FAF0 F2F9 1B3E 4626 1814 E9CD F5FB  .......>F&......
00069E7C DDEC FCFD 0626 2B08 10FE E00C F8C5 DF0A  .....&+.........
00069E8C 130C 0107 0B06 F7E8 142C 3B23 191E 09EB  .........,;#....
00069E9C ADC1 0813 1D15 1F0E 2026 F1A8 8BD3 D9AC  ........ &......
00069EAC B4C2 CAE8 FCF8 FE15 5069 FCCD 0716 317E  ........Pi....1~
00069EBC 7A36 4C21 C8ED F4D4 034E 7F6F 3B22 F9B5  z6L!.....N.o;"..
00069ECC ABF3 E9DE 141A 0CFA FD10 FDE9 EAB5 84C6  ................
00069EDC EDDC E1FA F5F7 EAB7 90A5 D1D7 EEDE A4D0  ................
00069EEC 2744 2EF5 1470 5133 1FF1 3476 5235 0ED4  'D...pQ3..4vR5..
>m
00069EFC E3FD DBD6 F305 171F 304B 240F 29EB BD0D  ........0K$.)...
00069F0C 452F 2E53 4C29 0DE9 C6B2 CBDE D9DA D6C1  E/.SL)..........
00069F1C C8E8 E6E3 0E13 DDE0 FEFE 233F 3527 10DD  ..........#?5'..
00069F2C CEF0 1723 1F13 00E2 D3E3 E2DA EFFA E9EA  ...#............
00069F3C FD1A 281D 1D2D 2803 D9A4 AECB DEE5 F8F8  ..(..-(.........
00069F4C FF39 4D1D F60C 09DC CBE6 1033 3512 DFDC  .9M........35...
00069F5C DEEB 0514 4762 6432 0DEF D2E5 0410 0C0A  ....Gbd2........
00069F6C 080B 1D25 0604 020A E9CC C3BD D0E5 EEFD  ...%............
00069F7C 1B37 453F 2B15 F8EE DFCC D7E6 02F9 0F21  .7E?+..........!
00069F8C 171F F3D5 CAC6 DFEB E50C 1E19 10E8 F60C  ................
00069F9C 281F 0409 0321 1F19 020E F7F5 FFDF F019  (....!..........
00069FAC 1F39 3BFB D7C2 A7C3 E8EE 1A0B 1AFB F6D1  .9;.............
00069FBC CEDB D805 090B 1304 D0F6 E1F0 100E 1CF8  ................
00069FCC 2619 0E28 F9F4 2A23 2525 0A27 3640 4719  &..(..*#%%.'6@G.
00069FDC 0D17 FCE8 FAF0 EC08 07E8 EDD7 E7D9 F407  ................
00069FEC 0CF6 F8ED E3FD 0CFC DCE1 C5B5 D9E7 D4EE  ................
00069FFC 2AF3 F0F9 B9D4 F0FA 1905 F51E 141C 27E4  *.............'.
0006A00C 3B0B FE26 04EF F62C 2640 4123 4114 E917  ;..&...,&@A#A...
0006A01C FC01 3C1F 1426 01F2 170E F900 F604 EEDD  ..<..&..........
0006A02C FFE6 B705 1AD1 163C DDDE E2CD CFDF F7E7  .......<........

>m
0006A03C C9C7 D8AF E6EC D2F2 F1F5 F525 0D0E 1509  ...........%....
0006A04C FBF4 2033 222A 3723 1C04 171A 1715 3D39  .. 3"*7#......=9
0006A05C 3F4C 281F 06EE EFE4 F6F7 FC02 DF1C 1BC7  ?L(.............
0006A06C 13F5 B4E4 B3B1 F7E6 DB15 3308 F926 F6B3  ..........3..&..
0006A07C DAEA CC08 F5E5 1FE5 C41A 16DF 0C0E FE07  ................
0006A08C 0FFB 043C 26EF 0C34 02EC 0C11 EFFF 26F8  ...<&..4......&.
0006A09C D918 29DE F448 06FE 29FE 110D ED03 0EE0  ..)..H..).......
0006A0AC EFF3 D709 18E2 FA4C 0DE4 2B25 F60F 0DCB  .......L..+%....
0006A0BC 042A F2F3 1F0D 061A E4DD 1EF7 C026 36E6  .*...........&6.
0006A0CC 214D 0AF6 FAF4 DBD1 D4EB E9D5 2415 B8EB  !M..........$...
0006A0DC FEBA BCBC BAE0 1509 013B 22F9 02F8 E7E7  .........;".....
0006A0EC 0742 15F6 4721 D2F5 3B18 0215 3F3E 1DF4  .B..G!..;...?>..
0006A0FC 034F 27DD 1D48 DEE6 FAD6 D5D0 D7FE CCB2  .O'..H..........
0006A10C 10FB 88DD 47CC BB15 02F3 FFC8 F310 E5EF  ....G...........
0006A11C 0606 FF04 FD2A 2D24 2B57 422D 452A 0A2F  .....*-$+WB-E*./
0006A12C 5E26 0A35 4F28 DFFF 28EF BA05 35F7 EA0B  ^&.5O(..(...5...
0006A13C 31FC BAE5 FFC8 BFF6 E59F EC19 E19D D5CA  1...............
0006A14C DED9 A892 EF19 DDEA 1915 E1F7 14E2 C81B  ................
0006A15C 2EE5 0657 09D4 3062 EFFB 3032 2611 2517  ...W..0b..02&.%.
0006A16C 0606 5036 F408 2716 F0F7 E8FE F2D6 2B0B  ..P6..'.......+.
>m
0006A17C B1A0 3840 B7C0 0514 FF03 FCEC EFE1 FB1D  ..8@............
0006A18C 07DA E109 2713 FDFC 0E18 1F1D 00EE 1343  ....'..........C
0006A19C 160A 2414 153E 24CF E713 F500 1B00 FA27  ..$..>$........'
0006A1AC 26F4 15EC C801 0FAF 8114 35E1 B7F4 EDCF  &.........5.....
0006A1BC E7E5 D8D0 FA0B 03FF F105 F8FE DD05 1CD4  ................
0006A1CC EA31 26F8 DF42 51F8 0725 192F 3E17 D7F9  .1&..BQ..%./>...
0006A1DC 4C24 FFFE 1F05 E7F7 E6CD D2C4 FB2A B499  L$...........*..
0006A1EC C83C 24BD C9EB DFEE 1925 E4E7 171D 2103  .<$......%....!.
0006A1FC F5DE FF42 361B DA0E 4D4C 43ED F939 4B32  ...B6...MLC..9K2
0006A20C 271C F628 3E27 FCD2 E305 1E09 E5F0 0029  '..(>'.........)
0006A21C 09CD CDF0 0CE5 988A E81C F9BC D5DB D0FA  ................
0006A22C E3DD E5F5 160E F0E1 FA11 040A 02F4 E6DD  ................
0006A23C 1C10 FDED 0F58 1FF9 0604 2147 3F15 EB06  .....X....!G?...
0006A24C 3F51 03DE 050A 241E EAE5 E020 34CC 99BB  ?Q....$.... 4...
0006A25C 0738 F9C3 CECB C203 1105 CAD4 FBF9 07F2  .8..............
0006A26C C5F0 1F26 3AEE C80E 3E34 15F6 2849 3A37  ...&:...>4..(I:7
0006A27C 21E8 FA48 2E21 01D6 0F4A 1DEB 1816 2336  !..H.!...J....#6
0006A28C EED3 1A1D F9B6 9DCF 1113 CBC5 C9B6 EBFB  ................
0006A29C C6E9 F904 08ED C2C8 1D05 0330 05BC 0F1A  ...........0....
0006A2AC E9EC FCF3 5459 F4F9 0AF2 3B45 E303 1912  ....TY....;E....

>m
0006A2BC 3609 C1EF 1405 28FF CDD6 2806 D9A7 A9F6  6.....(...(.....
0006A2CC 452F D3C5 C3C2 FB2F 0EF9 F9F8 112A FBC0  E/...../.....*..
0006A2DC 0530 5045 00E8 1B26 2A28 FB02 4D45 143F  .0PE...&*(..ME.?
0006A2EC CCAC 2F2A F22E EAC9 2726 D9E7 0AFC 1E16  ../*....'&......
0006A2FC DF02 25F6 D9C7 B6FB 2601 DAE4 C5DA 14E6  ..%.....&.......
0006A30C C721 0EF1 19F6 9AE4 2601 1F25 C5F4 18D6  .!......&..%....
0006A31C DF05 CF24 681C FE16 F30D 2804 1D36 2016  ...$h.....(..6 .
0006A32C 17E0 E5F4 FA0D FCEB 1A25 CBD3 C2A1 EB31  .........%.....1
0006A33C 2E03 F6DF C0B6 F014 0811 0E08 15D0 BFDD  ................
0006A34C 1A40 5F09 F209 1312 35F7 E45B 742E 351D  .@_.....5..[t.5.
0006A35C B8D5 4424 042B 11EE 2A0C C2EC F9F4 F81B  ..D$.+..*.......
0006A36C 12FE 06E7 C9A6 D808 10FC FBD2 BAD1 DAD3  ................
0006A37C 0C3A 0D02 0BA9 B818 231A 2105 F918 00B8  .:......#.!.....
0006A38C F1DF EC57 6E06 EC22 F1E3 221C ED4C 5510  ...Wn..".."..LU.
0006A39C FEF3 C0C8 3E1E CA17 44E0 C0EF B381 E863  ....>...D......c
0006A3AC 28FB F7CE A1CC 0310 F217 42F4 E3D1 DFE0  (.........B.....
0006A3BC 306F 1CFE 1703 F60E 1ACA 197F 5616 1FFB  0o..........V...
0006A3CC A2F1 2E12 0541 301B 0EE4 E6E8 F2ED 2035  .....A0....... 5
0006A3DC 0E1E 03CF BEC3 F622 FDFC FECD C7C6 DEFF  ......."........
0006A3EC 2C34 08FF C1A1 EA21 2706 1511 E1E0 F1E7  ,4.....!'.......
>m
0006A3FC C8D3 2453 3211 1F0C D302 1913 2748 4616  ..$S2.......'HF.
0006A40C 0408 E3DE F40B 3026 F7FC D58C 9ADB 1C11  ......0&........
0006A41C 0508 E4A0 9BA6 CFFC 3752 09B4 BCD1 E21D  ........7R......
0006A42C 5A32 302D 0A0F 0A07 EB2C 7872 3428 1CC7  Z20-.....,xr4(..
0006A43C DB1E 1C1D 3446 3C14 E6E5 C6E5 E10B 3824  ....4F<.......8$
0006A44C 0C0D CDA5 B0C5 F913 1412 D0A5 ADA7 F137  ...............7
0006A45C 2F21 0CC1 BDCD FE33 0D1B 3CFA 0329 E5BE  /!.....3..<..)..
0006A46C F218 1E39 3631 07CA E7E4 CA29 4424 381B  ...961.....)D$8.
0006A47C ECD5 BBD6 202E 2015 22DB B4B3 C2F6 3223  .... . .".....2#
0006A48C 2D1B B9A0 B8B8 0855 372E FBB9 E5EE F83A  -......U7......:
0006A49C 3538 3826 FFF0 FBFF F52D 5653 2D09 EDBD  588&.....-VS-...
0006A4AC C1E7 0326 284D 3CE4 D5D6 BED1 F621 4323  ...&(M<......!C#
0006A4BC 08F3 BFB7 ACFF 201C 2313 BDAF B0C9 362E  ...... .#.....6.
0006A4CC 1F2B E6BA CDE5 0A0E 0A36 160B 17F1 EDE2  .+.......6......
0006A4DC E70A 3B2E 3A46 ECB4 DDD0 F44E 1E30 56F3  ..;.:F.....N.0V.
0006A4EC C6CB ADEA 4C0F 0539 F2B6 CEA9 C622 1A16  ....L..9....."..
0006A4FC 3FEE 9CC2 AECB 3A44 142E EDD6 F2FE 0B2A  ?.....:D.......*
0006A50C 4B3F 3812 F6F1 18F9 1251 514F 3A0B CEC3  K?8......QQO:...
0006A51C D5E5 1D2E 344F 23D4 CDC3 ACCF 0230 4205  ....4O#......0B.
0006A52C FFD7 BFA3 C50A 1C26 23F8 A6C0 B1FB 381E  .......&#.....8.

>m
0006A53C 1917 E2C0 EEE8 F413 391E 1B22 F3EC F4D1  ........9.."....
0006A54C D426 252F 641B B8C4 D9CF 2538 115B 44D5  .&%/d.....%8.[D.
0006A55C C4D8 D60A 2C13 2815 CCC6 D1B7 D719 1D21  ....,.(........!
0006A56C 23B9 A3C6 B5EF 4B1C 031F 00D2 FC05 0348  #.....K........H
0006A57C 482F 2101 F51A 21F8 2A60 4D55 3CEE CCD6  H/!...!.*`MU<...
0006A58C DFF5 3736 4248 15E4 B3C4 ABDD 1536 1DF9  ..76BH.......6..
0006A59C E8DB C2A1 D5FE 1E25 FCBD ACBE D228 1806  .......%.....(..
0006A5AC 0C1B D1E0 F6CD 0C41 2721 2B02 ED06 F6BE  .......A'!+.....
0006A5BC E52F 2D55 4FEC B0D9 DAEA 2315 2B57 1DCF  ./-UO.....#.+W..
0006A5CC D1CE CD1F 2E06 22F8 C2E2 D0C5 062C 1C2F  ......"......,./
0006A5DC 03A7 ABCD DE0B 260C 1E28 E9F6 FCEE 2D4D  ......&..(....-M
0006A5EC 2921 0E02 0326 08FE 4C59 484E 0ED1 C6E8  )!...&..LYHN....
0006A5FC DFFC 2A47 3320 14D6 A1AE CF07 1922 1CE4  ..*G3 ......."..
0006A60C DCE3 B5BC E513 2B10 DDC0 B6E1 F6FC 0BFF  ......+.........
0006A61C 1503 E4EC CAE3 3B29 1E2E 1901 F810 CEC8  ......;)........
0006A62C 1B37 4062 1CC8 C9E7 E0FF 1F21 4439 0EC1  .7@b.......!D9..
0006A63C B8C8 E820 1E18 0FD9 E2E7 BFDA 0C1D 1D18  ... ............
0006A64C E4A8 BEE8 E8ED 1019 1D09 06FC DA18 4931  ..............I1
0006A65C 1F21 0C02 1127 F524 6C4D 5048 F3B7 E0ED  .!...'.$lMPH....
0006A66C DF04 4C46 1637 1AB2 8ACC EB01 0E2C FCC8  ..LF.7.......,..
>m
0006A67C 0BD0 BAD0 F305 28E0 D7C3 CAFE E705 F914  ......(.........
0006A68C 100B EBC9 C90B 341D 350F 21F1 13ED BFF0  ......4.5.!.....
0006A69C 3146 4F47 E4E2 E1F1 EDF8 0732 372F FBAD  1FOG.......27/..
0006A6AC BCE4 FC0E 2102 DDE3 FBC8 CC03 061D 1A09  ....!...........
0006A6BC D2BF E0F2 C4F9 3214 1B2A 1AD0 113C 1914  ......2..*...<..
0006A6CC 2E19 0416 1510 0F58 5437 5016 C8CD F7E1  .......XT7P.....
0006A6DC E123 5F22 1F3C E594 9CEA F4F0 0A21 CDF2  .#_".<.......!..
0006A6EC F4C5 D2D1 E81B F6D7 E9C5 F5F7 E5E6 0F0A  ................
0006A6FC 0E0B C6D1 FB24 2140 120E 1EF4 00CC DE16  .....$!@........
0006A70C 433E 4A08 E10F E0FB F5F2 1641 371D E9A6  C>J........A7...
0006A71C E1FD FD18 0FE1 E202 DCC7 F3F4 091C 05E3  ................
0006A72C D5C6 D2DA D60D 1C25 2342 EFEE 2E10 1128  .......%#B.....(
0006A73C 3103 1511 142A 315E 3C4B 38FB C6EA EFDF  1....*1^<K8.....
0006A74C F03D 4B1F 2C1A BE8B B8EF DFE8 0EF9 DDEC  .=K.,...........
0006A75C E1D2 C9CD FD02 DEEA E6D7 F4EC C6F4 1C05  ................
0006A76C 27EC D5E7 1122 4235 012E 03FC F1E4 003A  '...."B5.......:
0006A77C 3D36 2EEC 0B0E EB00 EBF8 1D47 220A D5B7  =6.........G"...
0006A78C F903 0315 F8D4 EDFA C9DE F7F1 0822 EBE3  ............."..
0006A79C DFBC D4F4 DFFD 3323 3C33 EB01 120F 1F34  ......3#<3.....4
0006A7AC 0BFE 1A08 2743 3A42 4543 16E9 D7EA EAE0  ....'C:BEC......

>m
0006A7BC 083D 3D1E 17F8 BF90 CAEC D3EC FCF6 EEE4  .==.............
0006A7CC EED5 D3D6 F5E5 E6F6 F0D7 FFCF CD1A 121A  ................
0006A7DC 09E7 DFFE 0F2F 461C 1A12 FBF7 EAEF 2E37  ...../F........7
0006A7EC 2A2B 06FD 2510 E6F9 EFE4 2D49 FF09 E2CE  *+..%.....-I....
0006A7FC 0D05 FFF5 DDD3 FCF5 D2FB 07F1 1F19 E5EB  ................
0006A80C E4BA DBFC C508 352E 371E 0AEB 0A1D 1413  ......5.7.......
0006A81C FCF9 0705 4146 2B3B 401F FBF7 E7D9 EBFD  ....AF+;@.......
0006A82C 1333 3A20 04F7 BAB5 E3E3 E5F3 F50E F8EB  .3: ............
0006A83C FCDE D9CF E6F3 F400 ECEF E3C1 FC12 0B0C  ................
0006A84C FAE0 E9F7 1438 3921 FAF6 00E3 E220 391C  .....89!..... 9.
0006A85C 1915 051F 3109 EAFA CB19 4313 0A12 EBEC  ....1.....C.....
0006A86C 1C01 F4DB D1E1 08E4 E511 FC0A 240A F4E5  ............$...
0006A87C C4B6 F3D6 BD0B 3033 211D 0CFB 0722 01E4  ......03!...."..
0006A88C F5F0 EA0F 5A4A 1D3B 1C02 FB17 E2DD 0A16  ....ZJ.;........
0006A89C 2136 3B0B F5F0 F3D7 D801 F4D2 061C FCEF  !6;.............
0006A8AC 04EF CBCB EEF8 EA01 FCD2 CDEE FFFA 05FB  ................
0006A8BC E0C5 F5FA 152E 33F7 D203 E0DB 0744 0E12  ......3......D..
0006A8CC 0503 2E2E 2DF5 F1EB 0C14 1B29 1817 04FF  ....-......)....
0006A8DC 1300 E2DF E8E5 EF03 0B0C FB1A 14FB E5DB  ................
0006A8EC B8CD EABF D528 520D 0D2E FAFF 1B0B CCEF  .....(R.........
>m
0006A8FC FADC FC41 6012 3138 FBE7 1F0D CDF5 2113  ...A`.18......!.
0006A90C 1836 38FE EE11 FBBA F414 C8E4 1A10 F510  .68.............
0006A91C 17DE BBE0 17D8 FB1C CFBC FBFA EF05 08F0  ................
0006A92C D4D4 FD12 153B 1FB9 EFE7 D2FF 381C 070B  .....;......8...
0006A93C E42F 4012 15EA E409 0BF4 2931 1527 F6F7  ./@.......)1.'..
0006A94C 1FF5 DBF1 D6C6 141D FF00 101B 06EE E3CD  ................
0006A95C C9DD E2C9 EE3F 33FD 2716 FB1A 18DF D401  .....?3.'.......
0006A96C E3E4 2059 4C0A 3C21 D7FF 36EA D615 2718  .. YL.<!..6...'.
0006A97C 192E 24EB FF21 D6C2 13ED C7FA 10FF 0A29  ..$..!.........)
0006A98C FEBD CF13 D2DD 20EA ABE6 01EB E200 FFD6  ...... .........
0006A99C C8F4 13FC 2E3C E0C7 F2D2 F636 2F01 13EA  .....<.....6/...
0006A9AC F958 2208 1AE5 0D1E E9FD 522C 2035 EEF7  .X".......R, 5..
0006A9BC 2DF3 DFE4 C0E4 2C13 FE05 1710 F9EB D9C1  -.....,.........
0006A9CC D2DE D8D3 0827 0819 0E06 0713 FDDB D1EC  .....'..........
0006A9DC DFE6 2A61 2A0A 4DFB D81F 19E1 F623 2D11  ..*a*.M......#-.
0006A9EC 132E 1DF7 2216 D1F2 0DD8 DC08 F90A 351C  ....".........5.
0006A9FC F9D9 E1E7 E7F5 FFC8 BCF7 06E8 DA06 E9D5  ................
0006AA0C CE03 020A 3B12 C9D5 DCDE 2040 0CFC 13E1  ....;..... @....
0006AA1C 2D37 FF1A 1BF1 1D16 D511 5535 2223 F815  -7........U5"#..
0006AA2C 2DE5 DBC7 C4F4 3A17 FF12 1111 EFDF C2D4  -.....:.........

>m
0006AA3C D9DB D8E4 F80A 1D1C 000A 180C F1D6 D9DB  ................
0006AA4C E0FE 3540 2A33 1EED F418 F4F9 0829 2511  ..5@*3.......)%.
0006AA5C 1527 27F4 070F EDD9 E8EF EDDC F937 10E8  .''..........7..
0006AA6C 0310 C8DF 00EB DBD4 D90F 07D1 EA04 D5B6  ................
0006AA7C FF2C 0228 39FA D6D5 D911 3D2D 0D2E 09F3  .,.(9.....=-....
0006AA8C 2C36 100F 22FD 1FF5 DE23 4324 0D2E 0209  ,6.."....#C$....
0006AA9C 0EE0 B9BE C8F6 300E F717 0CF0 D5C3 BDDA  ......0.........
0006AAAC E3D7 E4ED ED11 1912 0320 250E E7D9 DCDC  ......... %.....
0006AABC F41F 2C25 493B FAF2 17F9 F923 241B 1D18  ..,%I;.....#$...
0006AACC 111B 0DF5 0310 E3C3 0EFE B9DC 2401 E40A  ............$...
0006AADC 12DF E602 E8D9 D4E3 0313 EAD5 F6DE B4DE  ................
0006AAEC 291D 0B42 29DB DDE4 FF1B 3F1E 2825 F80A  )..B).....?.(%..
0006AAFC 282B F622 22F1 1BF8 F31F 391C 171C 091A  (+."".....9.....
0006AB0C 04BB C1BB D4ED 2B19 F91B FDD9 C7AF C9EA  ......+.........
0006AB1C F0D7 F005 EFF6 1719 061D 2B02 E3CE D9E5  ..........+.....
0006AB2C FC13 1D3B 4B13 EE0F 08E5 0B2C 0B1F 4814  ...;K......,..H.
0006AB3C FD19 17F9 130B EFF9 0DD9 D1D9 CBE8 301E  ..............0.
0006AB4C FB05 0FF9 DDD5 EF02 FD08 F7E6 C89F D207  ................
0006AB5C 1B0B 3836 DCDC E6F1 F319 471A 130E FF02  ..86......G.....
0006AB6C 1C16 FD31 13F7 2003 F714 2F21 0617 2A2A  ...1.. .../!..**
>m
0006AB7C F2D2 C4BB DDFD 3821 0B0D F4DA B2C2 DEEA  ......8!........
0006AB8C FFF1 FAFC DBE1 FD2D 2114 36F7 D5D9 EADE  .......-!.6.....
0006AB9C F51A 2E4F 38EB EEF8 EB0E 1022 2131 341A  ...O8......"!14.
0006ABAC FB02 01E1 2340 F1D8 16DD BDC9 D0EB 1938  ....#@.........8
0006ABBC 0E15 FED4 B2F9 0AE6 F313 06D2 B2B2 E00D  ................
0006ABCC 1227 3E03 E4FC E6E9 F130 2919 18F8 00FA  .'>......0).....
0006ABDC 0C09 0E1C 2218 1F01 0006 2B1F 1223 3815  ....".....+..#8.
0006ABEC E8E5 C0BE E513 3C2D 12FE F5C4 C7DA D6EA  ......<-........
0006ABFC 190E FEE3 D8C9 F245 1421 26EB D9E4 D9D4  .......E.!&.....
0006AC0C 0523 375B 15D4 F6D3 DE1E 1220 4733 1723  .#7[....... G3.#
0006AC1C F2D6 EE16 2D29 F7FA 01CF B0C8 E0F2 3C39  ....-)........<9
0006AC2C 1212 F8C1 C5F2 E6F5 FE18 F7BD B1B6 EF10  ................
0006AC3C 182B 2CF4 FBEC E1E9 0C2F 1D2B 19F2 05EE  .+,....../.+....
0006AC4C EE1F 0E20 441D FF16 F7FC 1E2E 1347 3FF3  ... D........G?.
0006AC5C E5E5 B6C4 0523 2F2E 0FFE DAC9 D6D1 D314  .....#/.........
0006AC6C 341A D6E0 C8B5 1039 1020 27EF DAD1 CAE4  4......9. '.....
0006AC7C 0D2F 4142 F6DF EDBD EA1E 083B 5E2A 071A  ./AB.......;^*..
0006AC8C C9B8 1128 2231 0DF3 EFC0 9AD5 E609 4534  ...("1........E4
0006AC9C 1712 E1B7 CEE0 E902 0E1E E1BC BAC0 F906  ................
0006ACAC 2237 15FA F9DE E1F7 292F 1F25 19F1 F7D6  "7......)/.%....

>m
0006ACBC EA24 0A3F 600C 001C E4EB 172A 3555 2AE6  .$.?`......*5U*.
0006ACCC EFD5 AAD5 1A1D 2638 0EEF C7DD D7C5 E536  ......&8.......6
0006ACDC 4A01 CDD8 B7C9 1535 1E21 22F3 DDB4 D5FA  J......5.!".....
0006ACEC 123A 4026 EBF4 D7BA 0018 1752 5F15 1703  .:@&.......R_...
0006ACFC AAD3 2722 3030 0DE1 DCAC A5E6 F522 3B3C  ..'"00.......";<
0006AD0C 0F02 D6B6 C0E1 F2FF 1612 D0C8 BACD FC04  ................
0006AD1C 3122 FD03 F8D4 E60E 3238 1625 15E9 DDDA  1"......28.%....
0006AD2C F919 3064 4002 18FA E0F4 0531 7041 0AEC  ..0d@......1pA..
0006AD3C E0CF B6F2 140F 313E 08F1 C7C4 D5D7 F841  ......1>.......A
0006AD4C 33E0 D0B9 C3DD 0A21 311C 0F03 D4B7 DD05  3......!1.......
0006AD5C 1C31 2B1D EEF7 C3CF 0115 2C5B 5914 0ED9  .1+.......,[Y...
0006AD6C B101 2730 3D38 06CD CCBE BAEF 1517 4441  ..'0=8........DA
0006AD7C 07EC D7B2 C1EC FBF8 13FE D7C3 B6E9 F40C  ................
0006AD8C 2CFE F908 DBD5 F21C 332F 0722 09D2 CFE7  ,.......3/."....
0006AD9C EE28 5D55 3014 01EB E8F1 FB4F 732C F7E8  .(]U0......Os,..
0006ADAC EFCB CC18 0306 5030 F4F6 C8BE E4F3 1037  ......P0.......7
0006ADBC 0FEB C0B4 D7EF FA35 3C03 17F4 C4DE E9FF  .......5<.......
0006ADCC 2723 2906 F5E3 C6E5 F52E 3F57 4210 F1C0  '#).......?WB...
0006ADDC D513 372A 4437 F1AB D5CD BF14 0F1A 453A  ..7*D7........E:
0006ADEC F1EE CBAE D3FA F000 01F5 E0B7 CCF8 F01C  ................
>m
0006ADFC 19EC 0BF5 D4E9 FD2A 3621 041B F6BB D9E5  .......*6!......
0006AE0C F756 6333 4009 DFFB EBE0 145D 5B0E E6F4  .Vc3@......][...
0006AE1C EBBE FA13 E521 5615 F1F7 B4D4 FE0C FD1E  .....!V.........
0006AE2C 0BD5 BDB7 EFDD 0556 1DF4 12E1 E0FA E70F  .......V........
0006AE3C 292B 1AFD FBC9 DEED 0146 4643 3CFB C7DB  )+.......FFC<...
0006AE4C E523 3D35 502A D6A6 E3D2 E01A 0E27 3B26  .#=5P*.......';&
0006AE5C E6E2 C8B0 F1ED F1FA F2F6 DDB3 E5F3 F325  ...............%
0006AE6C EFF6 07D9 DDF2 0F37 231E 0AFF E1BE DAE1  .......7#.......
0006AE7C 186E 463A 4CD5 DD03 F6EA 285C 3CFD F107  .nF:L.....(\<...
0006AE8C D2E7 13FF F936 3EFE EFEF C6D5 1F1C EB16  .....6>.........
0006AE9C 03DA AAC9 FDCD 2750 F9F8 04DC F9F8 EE14  ......'P........
0006AEAC 222F 03FD EBC3 E7E6 1157 3931 35D1 D2E9  "/.......W915...
0006AEBC E734 403B 4111 C4BE DAE4 FD05 2027 361A  .4@;A....... '6.
0006AECC E9E3 C4CC F8E1 F6F7 F2FD D8CA ECEB 0114  ................
0006AEDC E20E F3DF EDFE 242A 1C30 09DD D3D2 CBE2  ......$*.0......
0006AEEC 3D6F 2D4F 22B0 E616 DAFD 4141 22FC 0BE9  =o-O".....AA"...
0006AEFC E111 06FB 1025 2DE9 EB02 CAE7 220E F002  .....%-....."...
0006AF0C 0ED9 9CED FFDB 3E36 DEFD 00E5 FAEC F91D  ......>6........
0006AF1C 1F2D FAF4 DEC4 EBEC 2159 242F 1BC9 DBE2  .-......!Y$/....
0006AF2C 032B 4941 29ED D5D6 D902 FD0D 1F22 2E0E  .+IA)........"..
>
>m
0006AF3C E8E7 CAEB E7D6 01F3 EDFA EADC E2EF 12F6  ................
0006AF4C E70D E7ED F214 2918 2627 F4D2 D9D1 C802  ......).&'......
0006AF5C 564A 363E F6B8 0F05 D226 3A25 0D09 01DF  VJ6>.....&:%....
0006AF6C 0A16 0106 0C16 1ED9 0204 D8EB 1D15 D601  ................
0006AF7C 11C0 B408 F5EB 3208 E3FF FDF0 FEEC 0D1C  ......2.........
0006AF8C 1D17 F0F3 D9C7 FBFF 2A3A 271D FFDF C7FC  ........*:'.....
0006AF9C 0E23 4D3F FEEC F8DF F7FB 000F 1E1E 2907  .#M?..........).
0006AFAC EDED D4F2 DBCA 07F7 ECFF 04D3 E204 04EC  ................
0006AFBC F2FF E5FA FF27 1618 2C13 EBCF D7C6 DB29  .....'..,......)
0006AFCC 393E 410D EFF3 01EB F929 200A 110E F503  9>A......) .....
0006AFDC 2209 FB15 F503 09F7 0D0C E5E7 31FC D20F  "...........1...
0006AFEC FCC2 E30D EFFD 08F9 F5F8 F3FE FCED 1B0E  ................
0006AFFC 1504 EEFA D0D7 0817 052F 23F4 11DA C61A  ........./#.....
0006B00C 0B17 4B26 D207 FFF8 08F5 050B 1614 33FB  ..K&..........3.
0006B01C F3F5 DEED C9D4 0DF0 EF1A 06CB F101 EFF6  ................
0006B02C FBEE F905 1A1F 111C 1303 E8DC C2DA 151E  ................
0006B03C 1950 1BE7 1911 D7FA 1913 FA09 14FA 0521  .P.............!
0006B04C 1FF8 0802 DDF9 20FF 1617 DC01 24E3 D802  ...... .....$...
0006B05C F4ED 03FA FDEB DC07 05DC F81A FBF8 1F03  ................
0006B06C 0BF3 F7FC D7EC 2004 EF39 FBF0 1CCE E81A  ...... ..9......
>m
0006B07C 0D05 3200 D912 0A1B 09EF 0908 001D 2EF7  ..2.............
0006B08C FFFC E0E2 BBE3 09E8 0E28 02CC FEEC E509  .........(......
0006B09C F2EC 0D1F 1F1B 170E FCFF F1D8 B710 28FD  ..............(.
0006B0AC 223E F4F7 3AFE D616 1CF3 EF0E 00FC 2436  ">..:.........$6
0006B0BC 07EE 0CE4 BC14 29FB 2A11 EBFC 03D8 DAF2  ......).*.......
0006B0CC 0925 F8F0 07C9 D419 F4D1 1A2A E909 13FB  .%.........*....
0006B0DC F7EF 11F5 E30B 21DA 0024 EAFF 15ED F514  ......!..$......
0006B0EC 0AF7 00F5 F510 272C F8F7 0DEC FB25 24FD  ......',.....%$.
0006B0FC 11F5 DAD0 B6F5 F2F6 1D39 F8D2 FEDB E311  .........9......
0006B10C E7F8 272E 1921 13F5 F8FB FDC8 DC3A 0FF0  ..'..!.......:..
0006B11C 1F0D EE1F 39F6 EC26 02E3 E208 FD0C 4533  ....9..&......E3
0006B12C F2F0 FEB8 CE31 1810 2F16 EBF0 E8D3 D1FB  .....1../.......
0006B13C 3834 E6FB F8BA D91D DBDA 3323 EC12 01EB  84........3#....
0006B14C E006 11F5 0622 FDDA F609 F2F8 2210 F80C  ....."......"...
0006B15C 0CD4 C706 160B 4C2A EFFF FFDB F226 250B  ......L*.....&%.
0006B16C 1EF1 D6B6 C5F4 EB05 303D ECDC F3C9 E80C  ........0=......
0006B17C E610 452B 1F22 F9E7 EC08 F0D9 0F39 F9FB  ..E+.".......9..
0006B18C FBF0 1124 2D02 0C19 F3D1 D90E 0026 601A  ...$-........&`.
0006B19C F0F5 D5AF F024 1E1D 391A DDDB DAD8 CD1C  .....$..9.......
0006B1AC 5724 ECFB E0B9 D70E D2FC 3F10 F012 EBD0  W$........?.....
>m
0006B1BC EF19 FF0D 310B E9DB D60E F600 431D 0105  ....1.......C...
0006B1CC FDAD B81A 192E 4C1E F9F5 F4D1 EF31 2816  ......L......1(.
0006B1DC 1BEE C2AD D1EE F212 432F EDE1 D4C6 EE02  ........C/......
0006B1EC EE37 5023 250D E3D5 F600 F216 2810 0AEA  .7P#%.......(...
0006B1FC CF02 271D 2A1E 17FF E5BC E613 0E4D 4F04  ..'.*........MO.
0006B20C F0D5 C2C8 EE29 2B2C 4605 C3C5 DFCD E346  .....)+,F......F
0006B21C 4E13 04EA D3AE DDFB E728 3DF2 FF06 CACD  N........(=.....
0006B22C 0905 0C42 23E8 ECB6 DB12 F826 4D1D 0DFC  ...B#......&M...
0006B23C C994 DA20 3049 332E F2E4 EEC8 F536 2E22  ... 0I3......6."
0006B24C 16DA B6B8 D1EA 0628 4423 F5CC CBC9 F5FD  .......(D#......
0006B25C 0C55 3E24 23EA D0D7 FAF0 233D 040B 0BBA  .U>$#.....#=....
0006B26C CC1A 251A 3734 08F1 C8BD F215 3555 3405  ..%.74......5U4.
0006B27C D3BF D5C0 FC3E 3243 3DDF A8D1 D1D2 135C  .....>2C=......\
0006B28C 3123 04DC C3AD E2FE 0944 1FE9 07E4 B7EF  1#.......D......
0006B29C 0004 3F4F F7F1 C2B0 E70A 1243 3F25 19D2  ..?O.......C?%..
0006B2AC 98A9 EE28 552F 412A D7E9 DDC2 0545 2D2D  ...(U/A*.....E--
0006B2BC FBBB BAC4 C1FA 2439 352C E5AE C5CA FE09  ......$95,......
0006B2CC 3E5B 3530 06CC C7EB E918 4F2E F41A DDA5  >[50......O.....
0006B2DC EB24 1F24 5421 F4D0 B5CC 0137 463F 36F0  .$.$T!.....7F?6.
0006B2EC AED8 C8BF 1B52 3A4A 1DB8 ABD3 C5F0 3A50  .....R:J......:P
>m
0006B2FC 312D F2C7 B0BA F308 2C42 FEF1 F8B8 D2F7  1-......,B......
0006B30C F52C 6426 EED3 ADC1 DE13 3F3B 3932 FE9D  .,d&......?;92..
0006B31C 93C5 F551 4133 490C CCEB CBCF 1550 332D  ...QA3I......P3-
0006B32C DCB3 CAB9 C219 3D33 3B2A C0A9 BFD6 1023  ......=3;*.....#
0006B33C 554D 401B E4BA DCDC FD46 5711 06FC BEB0  UM@......FW.....
0006B34C F924 273A 550F DFB6 B8D7 1552 3246 2DCD  .$':U......R2F-.
0006B35C B7E1 BAD8 315E 413E FAAA B8C5 CD0D 4B4B  ....1^A>......KK
0006B36C 382A DFB1 AAC9 041B 4329 F9F0 D3B2 E7E3  8*......C)......
0006B37C 0B5B 540F E1AD BBBD D536 4B2E 4437 CA88  .[T......6K.D7..
0006B38C A3D4 1550 3647 3AF8 D3DA CADA 2B52 341D  ...P6G:.....+R4.
0006B39C C2B8 D3A6 D237 442C 4C12 ADA4 C1E7 263C  .....7D,L.....&<
0006B3AC 4D52 3EF7 CDC4 D8D4 2660 3D11 05D7 BCC7  MR>.....&`=.....
0006B3BC F029 3542 4604 C5AC C5E9 3647 3049 0EC5  .)5BF.....6G0I..
0006B3CC C1D0 CAE2 3F6A 3C24 E9B1 B5C2 DE26 5243  ....?j<$.....&RC
0006B3DC 3E25 C5A2 B7E0 1336 391D F7DB BEC8 E3E8  >%.....69.......
0006B3EC 3364 3508 B4B4 C4AE EE4E 4731 5010 A98B  3d5......NG1P...
0006B3FC B2EC 2240 4642 29F7 CED2 CEE6 3C4F 2C0A  .."@FB).....<O,.
0006B40C B4C6 CFA3 EF4E 3B34 4DEE A3A2 C4FF 4C40  .....N;4M.....L@
0006B41C 4963 1FDE C6D8 C6F2 4F5D 2820 E3BE D0CA  Ic......O]( ....
0006B42C EF39 463D 3BEF ADB5 D0FE 3942 3233 FCD0  .9F=;.....9B23..

>m
0006B43C ACE0 D5F2 566D 1F13 E3A9 ACCA F338 4F3F  ....Vm.......8O?
0006B44C 4609 A6A3 C6EF 2E42 2B1C E3C1 C2C8 E110  F......B+.......
0006B45C 504E 36DF A5C6 B4B1 194A 423E 38EC 9E92  PN6......JB>8...
0006B46C CA0D 124A 4D33 1CEC C1D8 CFFD 4B42 24F9  ...JM3......KB$.
0006B47C B0CC C3AD 1156 2F42 33D3 A2AD CC2F 5B2F  .....V/B3..../[/
0006B48C 5D53 F7CC DEC8 D21C 5F3E 340D BBC4 DCC5  ]S......_>4.....
0006B49C 0049 4930 24D0 ABBF E508 3649 201E 00C5  .II0$.....6I ...
0006B4AC AEF8 D107 6557 0A10 D7A1 B8DF 0E42 3F4B  ....eW.......B?K
0006B4BC 3BDF 97B8 D707 4732 3106 C9C4 C9C5 0330  ;.....G21......0
0006B4CC 414F 18B7 C6BD A5E4 2838 4F33 0DDF 9CA6  AO......(8O3....
0006B4DC F500 1261 3B28 15D9 C8D9 D61D 4D2E 15EA  ...a;(......M...
0006B4EC B1C9 BCCC 314C 3243 0DBF B0B1 E757 4936  ....1L2C.....WI6
0006B4FC 6726 D4E0 DDC0 033C 4341 33DD B3D8 D6D1  g&.....<CA3.....
0006B50C 1A4E 4120 04C2 B5CA F406 4A39 0B1D FDB1  .NA ......J9....
0006B51C CFF0 DB25 6335 0F09 BFA6 CBF0 233B 404F  ...%c5......#;@O
0006B52C 1ABE 9FCC E62E 4035 25DD C3D1 B6E5 2F27  ......@5%...../'
0006B53C 3F4E DCC6 D99C BF13 1139 560C F7D7 A4CB  ?N.......9V.....
0006B54C FAF1 2F5C 2826 FED3 D0D7 EB35 3F1A 11DB  ../\(&.....5?...
0006B55C B2C0 C8F0 423D 3A2E F1BB B9BB 1B5D 394E  ....B=:......]9N
0006B56C 46F3 D7F3 C6E5 2D2E 3A51 0EC3 C8D3 D5EC  F.....-.:Q......
>m
0006B57C 2247 3903 EFCA B7DB F410 481F 0A1E E3BF  "G9.......H.....
0006B58C E1EB F736 5027 12ED C1B6 D709 2634 4D3F  ...6P'......&4M?
0006B59C F3AE B1DA 043A 3138 FED1 D1C2 C319 2C17  .....:18......,.
0006B5AC 5015 D1DE CB9D F015 0649 37F3 EDD6 C2DC  P........I7.....
0006B5BC E40A 4140 2219 EDD5 DBDC 0B37 2F0E 0CCF  ..A@"......7/...
0006B5CC B3C1 E70B 3342 3212 E2C8 C0E3 344C 4543  ....3B2.....4LEC
0006B5DC 10DE F4D2 DD1E 2E19 4F3B E1CD D2C4 F007  ........O;......
0006B5EC 1849 20E5 EFCE C5DD FA1D 360E 0E0C E3CE  .I .......6.....
0006B5FC DDFB 0C2E 4124 FDE1 D4BF EC1E 1643 4F1B  ....A$.......CO.
0006B60C D4BB C9EA 252C 321A EBD8 C7C2 F124 182F  ....%,2......$./
0006B61C 28F6 E0DA C7C8 FF05 133A 11E2 E8EC E3C3  (........:......
0006B62C F525 2C2E 2008 DADC E4ED 1036 1C09 FFC7  .%,. ......6....
0006B63C AFD4 040B 2E4C 1200 E6D2 D410 2D54 401A  .....L......-T@.
0006B64C F302 E5D7 1632 152A 4E0A D5DF CEC8 1702  .....2.*N.......
0006B65C 163E 01DD F9D3 C3E1 0C10 250F 0903 F6C6  .>........%.....
0006B66C EB0E 0626 4415 DDF6 E2C3 0819 1352 37F4  ...&D........R7.
0006B67C D0D8 D60C 2B2B 1409 F5CC C5EC 050F 3415  ....++........4.
0006B68C 0100 E1CA E5E9 F10A 1712 FEDE F705 D7C1  ................
0006B69C 1619 1C25 17FC D5E9 EDF5 1634 06FE F9BC  ...%.......4....
0006B6AC B8F9 0EFA 3B3B F500 EEDC FE17 3455 17F3  ....;;......4U..

>m
0006B6BC 0FF9 D705 361B 1841 24E7 E1E3 C9F4 1AF7  ....6..A$.......
0006B6CC 151F ECE3 FCD3 C0FC 00FF 1E07 0119 EABF  ................
0006B6DC 0A06 F42F 41E5 E217 D8DC 1A09 1F50 0FDC  .../A........P..
0006B6EC F0DF F11A 2F13 FB1D E8C3 EC08 EB2E 28E9  ..../.........(.
0006B6FC 0CFE D1DC 0FE4 EC1A F5FD F1EC 0F02 CCE6  ................
0006B70C 180A 1916 13EB DEF6 F2F5 2026 F0FF E7B7  .......... &....
0006B71C D918 F8FF 4019 F306 F7FB 0F1A 4C31 E60F  ....@.......L1..
0006B72C 17E2 022C 260E 3630 F9E2 ECD9 E513 01F8  ...,&.60........
0006B73C F70E F1E6 FDC5 DCF7 EC05 17F6 221B C8E0  ............"...
0006B74C 16E4 FE46 16C7 150D DFFD 1008 2838 E7F3  ...F........(8..
0006B75C FEEA 071F 27EE 0F16 D6E1 14E1 0137 F3EF  ....'........7..
0006B76C 0DED D308 20CF F606 DCED FC03 16EF EAEF  .... ...........
0006B77C 0A09 0D0E 11E7 E7FF EAFF 2212 E300 D2C4  ..........".....
0006B78C 020F E406 2F09 F810 120C 0537 3DED EF2B  ..../......7=..+
0006B79C F901 292E 0E27 3507 E4EE E8E5 16FD F9E4  ..)..'5.........
0006B7AC DC17 F0E5 EFD9 E2D9 EE0A F814 41F9 C706  ............A...
0006B7BC F3DA 1938 E1ED 2905 FD08 020E 2215 E715  ...8..)....."...
0006B7CC FFF6 1322 05F4 1801 E80E FAD5 2210 ECF4  ..."........"...
0006B7DC 0CE1 EE2D 13C2 F7ED C5F4 110C 030A F1E2  ...-............
0006B7EC 0306 FB14 0FE3 F8F6 EF06 23FA E0F6 CBDD  ..........#.....
>m
0006B7FC 0BF9 DC16 2008 0C30 23FF 1E3A 06DA 2216  .... ..0#..:..".
0006B80C 0522 4010 1A3B 13EC E1F6 E713 15EB EBC6  ."@..;..........
0006B81C D80D F2D4 F4F3 C8D3 FEF3 F743 29E0 E602  ...........C)...
0006B82C D3ED 1D12 E511 2214 15F9 0808 1102 0923  ......"........#
0006B83C 04FD 2408 FD00 0A05 0A0A D5E8 1907 E101  ..$.............
0006B84C 05E5 0F3E FBBD EAD2 C014 1CF6 1522 E4DC  ...>........."..
0006B85C 04FA FC1D 0AEE FCF0 F112 1FE1 D7F5 D1E2  ................
0006B86C E4F9 FEFB 1F2B 2D3F 1A03 2C12 E800 2812  .....+-?..,...(.
0006B87C 183E 3707 2C2E FAE1 E0F7 0121 03DE C8C9  .>7.,......!....
0006B88C D0E0 E4E7 00DC C8DA F4F0 283F 0CE7 EDF0  ..........(?....
0006B89C D3F7 FD03 1218 1F34 18EF 05FD 0508 2A28  .......4......*(
0006B8AC FD1F 13FA 08F3 1120 08DC D9FA 0CF9 F800  ....... ........
0006B8BC FA00 2D1D E2CB D1C3 E21B 0B00 3213 D9E0  ..-.........2...
0006B8CC 01FB 0424 08F1 FCF0 F31C 0FBB DFFC DEDF  ...$............
0006B8DC F5F9 EAFF 3631 3F2E 0E0A 0EF0 F109 1C2C  ....61?........,
0006B8EC 2C4E 190F 3219 E3DA F308 2019 08C0 BCD9  ,N..2..... .....
0006B8FC CDE3 DDF2 F0C7 C7D0 E50E 3429 03E8 DEE7  ..........4)....
0006B90C E5ED E411 2712 2F4A 0BEA FFFE 082D 360E  ....'./J.....-6.
0006B91C 1923 F20D FDF7 2717 D9EF F3D7 061A 01F9  .#....'.........
0006B92C 1527 1B05 E8BD B1DC F00F 0925 26FC DDD5  .'.........%&...

>m
0006B93C FAFA 031C FAEA 01E1 F81E E7A4 FD03 D6E1  ................
0006B94C 00F6 E11E 424B 3326 14FC F8F4 0303 3939  ....BK3&......99
0006B95C 4B3C 0A1D 30F9 D6EE 0022 1919 F8BE BAD4  K<..0...."......
0006B96C E0D7 E6F0 D6BF C7BB 0928 1B19 0DDD D2F0  .........(......
0006B97C E6DF E51F 3018 4D43 04E7 FEFB 2C42 1D1A  ....0.MC....,B..
0006B98C 2D00 040F F31C 29EB EC0B BEDB 2016 FA0B  -.....)..... ...
0006B99C 2F1E 0102 E39A B4F1 EC13 2C25 06FC C7D7  /.........,%....
0006B9AC 07ED 0418 E8F3 FBDE 0910 BBB8 0FF3 C7EE  ................
0006B9BC FBE5 ED33 6141 1D2E 08E6 F203 FF1C 4546  ...3aA........EF
0006B9CC 5421 082C 10E3 E3FC 1A1D 0E06 FBDA A3D8  T!.,............
0006B9DC ECD7 E4DE BEB7 B2D8 3711 0D20 07CC DDED  ........7.. ....
0006B9EC D4E2 E42C 362E 4F32 F7E8 FB1B 4414 2426  ...,6.O2....D.$&
0006B9FC 1201 10FD 162F FBF4 02DC B9FA 1C12 0926  ...../.........&
0006BA0C 31FE FEFF C79D C1F2 F523 3A07 05EB C5F5  1........#:.....
0006BA1C F8E0 0E07 E1FC F3E9 15E9 B3DD 08D6 D3EE  ................
0006BA2C F0E6 0658 6D1E 2A2C EDE5 FB07 0A39 4E56  ...Xm.*,.....9NV
0006BA3C 4B13 211F F7E9 0219 1507 0808 0CC8 C6D2  K.!.............
0006BA4C ECE3 D1C4 BBAD AF27 2EF7 141D EACE E6DB  .......'........
0006BA5C D1D7 F336 4137 451E F6F0 0E31 1B1D 290B  ...6A7E....1..).
0006BA6C 1807 061B 350C FB03 E0D1 CC0D 1E0F 213D  ....5.........!=
>m
0006BA7C 12EC 04E0 BDBA BEFA 0731 2303 F9DF E1F1  .........1#.....
0006BA8C E7ED 01EC E8FA EEFF 0ACD BEF0 E9CD D6E6  ................
0006BA9C E5F5 2B71 4A1B 340B DDEE FE0A 244C 5859  ..+qJ.4.....$LXY
0006BAAC 381C 2305 F607 260C F508 0713 F0E0 D0D5  8.#...&.........
0006BABC F7DA B0B7 BDA0 F239 06FA 21F9 D5D5 DBD3  .......9..!.....
0006BACC CBD1 0A3C 4239 3911 FBF7 1C29 0D22 1111  ...<B99....)."..
0006BADC 1A04 2931 200F 09E0 DDD8 DD27 2015 3B34  ..)1 ......' .;4
0006BAEC F4EF ECD4 D4BE D9F9 1421 1BF9 E6E5 EDEF  .........!......
0006BAFC E5ED EEE3 E8FE F404 F5CA CCEC DEC6 D8D8  ................
0006BB0C E81D 5D58 342D 1CE9 DEF9 F920 3E5A 5F4F  ..]X4-..... >Z_O
0006BB1C 2C27 0F16 1D13 0BF9 F2FA 0BFB F6E7 DAE9  ,'..............
0006BB2C DDB0 9EC8 ACD4 0714 0A0D FFE5 D4CA D7DD  ................
0006BB3C C3DA 1D42 4633 3318 1311 081E 1E00 0423  ...BF33........#
0006BB4C 0714 472E 1820 E1C6 F5E6 003E 2219 4515  ..G.. .....>".E.
0006BB5C DDDA E1E1 D7EC E4F0 121D 08EA E9E5 F3EE  ................
0006BB6C E7E2 E8D2 F2F9 F900 F2C3 D7EF C4C4 DED8  ................
0006BB7C FF51 5638 3B1E EAE0 F5F4 0146 5757 623A  .QV8;......FWWb:
0006BB8C 2E14 0F1C 271E F3EB 04FB F90C 0ADF F0E5  ....'...........
0006BB9C ADAB BFB9 CBF1 EC19 1AF1 E5DA CBC5 E0D0  ................
0006BBAC BCEB 3549 352F 2F0E 1514 191F 04F2 221C  ..5I5//.......".

>m
0006BBBC 093C 4B0E 2E17 BFE1 130C 4C52 100D 1DE1  .<K.......LR....
0006BBCC C3DD DADB FE0F DADF 0B04 F5F5 ECE9 F6E8  ................
0006BBDC C9CF E5E4 EA0C 0204 F2C6 DDE0 C1E0 F911  ................
0006BBEC 4964 2624 2BE5 CCF3 FAEF 366D 4737 412C  Id&$+.....6mG7A,
0006BBFC 2021 1222 2301 CCE7 F8FA F223 0CF1 E8AC   !."#......#....
0006BC0C 9EC1 B6D6 F1EF F026 03E6 E8CF CDE0 EBD5  .......&........
0006BC1C D106 4329 2D2F 1018 1C14 180A D800 2408  ..C)-/........$.
0006BC2C 2A47 1518 30DE BB03 163D 594C 0EF4 ECE2  *G..0....=YL....
0006BC3C D6D1 EF11 1D16 D5D7 1403 EA03 F9E6 F6D4  ................
0006BC4C C6DA D9C2 0F16 FA09 E3C5 D8C8 C7EE 0338  ...............8
0006BC5C 724C 2E18 E9C9 EAF8 F11C 4B68 372D 4527  rL........Kh7-E'
0006BC6C 1A2E 2A27 19E5 D9E1 EEFD 0D18 10F2 BCA0  ..*'............
0006BC7C B8AE C3E2 F3EA 0917 E4DD DDD3 CADA EFDF  ................
0006BC8C E620 2207 2F22 0F1C 211F 16EE DB18 1022  . "./"..!......"
0006BC9C 4631 0F24 10C5 E106 3059 4E40 06E9 ECE5  F1.$....0YN@....
0006BCAC C7E5 1424 2F0A ECEB FFFC F401 F1EE DDCB  ...$/...........
0006BCBC D8DE B9CA 0CFF 0B0E C9CE C9C3 D1F4 045E  ...............^
0006BCCC 6D3C 3E03 C0D2 FFE4 013B 4C59 2927 4C32  m<>......;LY)'L2
0006BCDC 193F 3524 07EC DEDA FE14 080C 0FC5 BBB7  .?5$............
0006BCEC A9B4 CCE7 F3EF 0A02 D1D7 E8CC B5DA F0D7  ................
>m
0006BCFC F717 00F2 0D25 260F 2D23 FCE9 F80C 223D  .....%&.-#...."=
0006BD0C 403A 1C19 EDD7 FD17 4C59 512F 01F8 F5C7  @:......LYQ/....
0006BD1C CFFF 2339 1DFB 07EE ED04 F5F0 F1E7 C8CF  ..#9............
0006BD2C DFC7 B7D4 F9F7 1EF6 CFCE C0CE DAF4 226F  .............."o
0006BD3C 5A47 3AEA AFF1 FDD9 1D45 434F 2F2C 5423  ZG:......ECO/,T#
0006BD4C 2741 351C FCFB CFDD 1414 F506 EDC0 D7AC  'A5.............
0006BD5C AAC2 CCE8 F3EE FBF0 CFE6 ECBD A2E2 E7D8  ................
0006BD6C 0214 F0E7 051B 2A16 2A14 F207 FD1D 322C  ......*.*.....2,
0006BD7C 4F36 1915 DFEB 163E 474D 471F 070E E0C8  O6.....>GMG.....
0006BD8C EB0A 3738 FB07 03E2 FAFE EBED F2D1 C0DF  ..78............
0006BD9C D3BA B6E2 F4FF 15DA DFC8 C8E4 D609 4363  ..............Cc
0006BDAC 5B45 1FCE CD0B EDF7 3F37 355C 293A 4619  [E......?75\):F.
0006BDBC 2F3D 2C02 04F1 BE02 1FF4 F1EC D7DC C8B1  /=,.............
0006BDCC BEC6 D2F3 E7D8 F2F0 E4ED E8B0 A9EC E3E5  ................
0006BDDC 1607 E2F8 0508 2F1A 12FF 190C 0334 1138  ....../......4.8
0006BDEC 511E 1708 DB05 3E3E 3844 3213 1B01 C8DD  Q.....>>8D2.....
0006BDFC 0522 3A1A 050D ECF4 FAF6 ECEF E2BF D3E0  .":.............
0006BE0C CCC0 C1EF EF0B F2D2 E4C3 D9DF E824 3963  .............$9c
0006BE1C 5828 EED5 F5FF 072B 2726 524B 2347 2914  X(.....+'&RK#G).
0006BE2C 3E3E 0DFC 08D3 DB29 05DD EEDE F1C9 C7BE  >>.....)........
>

>m
0006BE3C CCC9 E0F4 C9CD FA06 ECEF E7A6 C2F6 E6FE  ................
0006BE4C 23EE EE01 FA03 2A0F F317 2509 1719 0F3E  #.....*...%....>
0006BE5C 331C 04FB ED30 3E1E 2E3F 1B17 21E2 CEE4  3....0>..?..!...
0006BE6C 2531 1D1D 0F01 FA06 F100 E8E3 CDD8 E2D1  %1..............
0006BE7C D9C7 DAE5 F2FA D9D6 E8CF D9E4 0716 2F68  ............../h
0006BE8C 3BF3 DF05 EF0E 2F0E 162B 4542 3D31 1F2B  ;...../..+EB=1.+
0006BE9C 4C17 FB12 FAE0 1618 DEE2 DEF4 E4D3 D2D2  L...............
0006BEAC D4CC E4CE B7CA 0E0F E9F4 DBA8 D4FE E61A  ................
0006BEBC 14FC FEFB F3FF 11F6 0727 2E18 0819 1A23  .........'.....#
0006BECC 3206 FAFF 104A 280E 2D31 0C1E 12E3 D0E6  2....J(.-1......
0006BEDC 3832 041C 12FC 0C06 F8F6 DECE DAF0 D3D5  82..............
0006BEEC DADB E6DC F0EA D1D9 F8D3 D4FC 0F08 385D  ..............8]
0006BEFC 14E1 0E04 FB2B 1513 1216 4847 3421 2C37  .....+....HG4!,7
0006BF0C 2DF7 0914 F20F 11F1 E1DC E3F6 E8D6 E7E6  -...............
0006BF1C CEDC D0BC B5E4 2302 ECF5 D6B5 E5F6 F41C  ......#.........
0006BF2C 0E09 02E8 F3EE FAFF 0E2D 4102 052C 0616  .........-A..,..
0006BF3C 2A01 FC0B 3346 0809 2525 0C20 13DA DBFF  *...3F..%%. ....
0006BF4C 2D18 FD1B 1811 0E07 F5EE D2CF E8EB DADD  -...............
0006BF5C E0E8 D9CE EDE3 CFEC FFD2 E30C F9FF 2F40  ............../@
0006BF6C FA03 1CFC 1518 0D16 F623 4841 2525 412A  .........#HA%%A*
>m
0006BF7C 0300 1E07 171F EFED DEDF EFF6 E3E5 09DD  ................
0006BF8C D2DF BAB4 C40A 24F1 F4F8 D5C0 EBED 031F  ......$.........
0006BF9C 0A11 06DB DDE2 06FF 0C4E 32F1 0F2A EE15  .........N2..*..
0006BFAC 24FF 0924 471D 020A 152B 1428 0AE4 F503  $..$G....+.(....
0006BFBC 0805 F61A 311D 0B09 FCE5 CDD5 E9EB F1E6  ....1...........
0006BFCC E1DF C8C7 ECDE E0F3 00E4 F5FB E8FA 172A  ...............*
0006BFDC 0E18 1913 0C00 1CF4 FA33 4832 0F25 3B18  .........3H2.%;.
0006BFEC F21B 1916 3905 E6E6 D5ED FDF9 E101 07D7  ....9...........
0006BFFC D7CD AEB5 EA20 17ED FCF0 C9D0 E9F6 121C  ..... ..........
0006C00C 011A F6C6 C7EF 11F0 2F5A 16E5 150A DC24  ......../Z.....$
0006C01C 2607 2741 2901 0BF6 0A3A 231B 0B05 FBE1  &.'A)....:#.....
0006C02C EF0E 0F1C 351F 0A07 FCD7 C9DE F2FF 06DC  ....5...........
0006C03C CCD4 C5C7 DEEA ECF3 09FA E9E4 EBEA 0D38  ...............8
0006C04C 201B 2C10 F314 07DE 154B 4A10 192E 11FA   .,......KJ.....
0006C05C 1F22 0F48 26E6 EAD6 D9FE 08F1 0111 EFDC  .".H&...........
0006C06C C8BC AACA 0729 04F2 01DE BEDB ECFF 1D1A  .....)..........
0006C07C 0A17 E0A7 D008 0202 5547 00E8 0EE8 E737  ........UG.....7
0006C08C 211C 4E3B FE01 FFE0 1647 1F15 280F D1CD  !.N;.....G..(...
0006C09C FA15 102C 3314 0907 E4CA D4EA 031B FEC6  ...,3...........
0006C0AC C2D4 C0B8 EAFC E904 1BF4 CEE3 D9D5 1B4D  ...............M

>m
0006C0BC 192B 34F5 F811 E6EF 3A60 2A0B 2D0D E517  .+4.....:`*.-...
0006C0CC 3A08 3C54 FBE6 D8D3 DF11 0402 21FE E5D7  :.<T........!...
0006C0DC B4B3 B2E5 1B25 FAFC F9BF C4EA EE00 271C  .....%........'.
0006C0EC 0808 B9AB F007 062D 592E F4E6 FBDB 0245  .......-Y......E
0006C0FC 233E 5A12 F005 E3E1 334C 0F2B 33ED B5D9  #>Z.....3L.+3...
0006C10C 0213 222A 1F0F 09E8 D0D0 E5F6 221B E8B7  .."*........"...
0006C11C C0D4 B3BF 09FB F81E 1CD4 CED9 CBE4 3D44  ..............=D
0006C12C 203A 1FE9 FDF9 EB0E 5D55 081D 14E5 F142   :......]U.....B
0006C13C 1C20 5A22 F0D2 CBD1 F515 0C20 1BE4 E4C9  . Z"....... ....
0006C14C ABB1 CBFA 2719 F806 DCBD D4F8 E909 2F15  ....'........./.
0006C15C 02E9 A9C8 FA08 2640 4719 ECE2 EDE3 1F48  ......&@G......H
0006C16C 2E5E 38F0 F8EF D5FD 4A32 1A3C 13C9 BAE7  .^8.....J2.<....
0006C17C 031E 2A11 1411 F1D2 D1EA EA0E 2C06 D5B2  ..*.........,...
0006C18C C5D0 B0DB 1403 1529 FFCD CACF D708 4143  .......)......AC
0006C19C 2C36 07EF EBFB FF33 682F 0B15 F2DA 1D36  ,6.....3h/.....6
0006C1AC 2244 3B06 E9B8 C2E1 0017 212A FCDB DFBD  "D;.......!*....
0006C1BC A2C2 DF09 2C0E FBFE D1CA E600 EA16 320B  ....,.........2.
0006C1CC F4D2 BADC 


; Sample 02
sample_file_02
                ; --------------------- Sound Sample 2 -------------------
                ; Start Address: $0006C1D0
                ; Name:          ORCH-HIT-EMAX-D4
>m 6C1D0
0006C1D0 464F 524D 0000 11B6 3853 5658 5648 4452  FORM....8SVXVHDR
0006C1E0 0000 0014 0000 1156 0000 0000 0000 0020  .......V.......
0006C1F0 20AB 0100 0001 0000 4E41 4D45 0000 0014   .......NAME....
0006C200 4F52 4348 2D48 4954 2D45 4D41 582D 4434  ORCH-HIT-EMAX-D4
0006C210 0000 0000 414E 4E4F 0000 0014 4175 6469  ....ANNO....Audi
0006C220 6F20 4D61 7374 6572 2049 4900 0000 0000  o Master II.....
0006C230 424F 4459 0000 1156 0001 0000 FF02 0506  BODY...V........
0006C240 0505 0504 0401 FBF3 ECE6 E8F1 FE0D 1712  ................
0006C250 0C0A 172E 2A21 10F4 0630 4C4C 1301 212F  ....*!...0LL..!/
0006C260 2B1C 0F29 5A7F 7F2F 0222 2E40 2EF1 E0ED  +..)Z../.".@....
0006C270 1B3B 16D0 8F93 B9A8 8480 818B BAC6 B1B8  .;..............
0006C280 BBAE B4BC 9EBA ECF8 0536 3B38 3544 6443  .........6;85DdC
0006C290 1509 2B0F E2DF DCB9 8383 9385 8586 B903  ..+.............
0006C2A0 4C46 4932 273E 413F 3628 1F3B 4D45 3D30  LFI2'>A?6(.;ME=0
0006C2B0 2F1A 2D15 C2B1 B9A6 AAAD 9FAA A18B B7F8  /.-.............
0006C2C0 2426 FD07 1B41 503B 2E3B 362A 1E24 2B50  $&...AP;.;6*.$+P
0006C2D0 4E4A 3627 3856 623E F6BD 9DA7 C6E5 F501  NJ6'8Vb>........
0006C2E0 C6AC C5DF 01DF E7F4 F7F2 2224 0C2D 0EBD  .........."$.-..
0006C2F0 B803 481E DAE2 2518 EAF2 F6D8 DF29 18C1  ..H...%......)..
0006C300 92AD C2B7 ADD9 EFCB C5D1 DED9 1B5F 5633  ............._V3
>m
0006C310 3652 4E37 4347 3A23 FEC1 B2F8 3819 2431  6RN7CG:#....8.$1
0006C320 FEE0 F6E1 B9BB BEED 030E 3519 FB02 4435  ..........5...D5
0006C330 04C5 BFC5 D9E6 2551 15DE E6E8 AAAD CEBB  ......%Q........
0006C340 C4DA F124 3C3D 5C72 6743 4675 7972 7F7F  ...$<=\rgCFuyr..
0006C350 7F40 1F14 13FB 1E33 16DC E7FA FCF3 DBCD  .@.....3........
0006C360 B3A1 829B B9C0 D8FA 3039 3839 557F 7F7F  ........0989U...
0006C370 7866 523D 2C1A 01F5 DFB8 A7B8 D1C5 ACA4  xfR=,...........
0006C380 BFC8 B5CF D6F0 1943 2802 0EF9 04FD 1921  .......C(......!
0006C390 2033 15F0 DBB8 8180 95B7 B081 8DBD D2B7   3..............
0006C3A0 B3C7 C2AF 99A7 B9E8 3D45 5366 5938 131A  ........=ESfY8..
0006C3B0 313A 2729 4668 7F7F 6958 5830 0C1B F4D0  1:')Fh..iXX0....
0006C3C0 D9CE 9683 9891 C4CD C4E0 0827 163D 6261  ...........'.=ba
0006C3D0 462C 4E27 536E 5F3D 1563 7F7F 725F 4120  F,N'Sn_=.c..r_A
0006C3E0 21EB E4C3 9080 A0E4 BABF C1B9 B4AE F2E8  !...............
0006C3F0 E9E4 FD13 E7E3 D7F5 050C 18F7 1530 403F  .............0@?
0006C400 2847 2948 5331 FFD7 E8ED EF06 2C1C DBC4  (G)HS1......,...
0006C410 BCBB A990 8081 8182 BAE4 D2BA 9DAC 9FBC  ................
0006C420 D2E8 1736 6754 4B43 3951 2D07 F80B F1E2  ...6gTKC9Q-.....
0006C430 FEDB BD97 B0D3 C2C9 B2C8 C3C5 0418 3A2B  ..............:+
0006C440 5C53 323A 2D42 0CEB CADB 0AF4 0FED EDD7  \S2:-B..........
>m
0006C450 F031 FDE4 B2B1 C101 331E 2025 5162 5F72  .1......3. %Qb_r
0006C460 7F7F 7F7F 7F7F 7E74 22E5 0E22 EFFB F194  ......~t".."....
0006C470 9CD9 D7C3 ABA4 8681 929D A7DF 3725 F72A  ............7%.*
0006C480 3A54 7D7F 7935 2EE5 CAFD 14F1 A9A1 8EA2  :T}.y5..........
0006C490 B3CF 09FA 1BE0 CE11 0BDC CF0A 0C2C 4B30  .............,K0
0006C4A0 0FD3 DBB5 88C1 E60C FDDE C481 8D86 9CB1  ................
0006C4B0 A9AB 92B9 CAD5 B2AB CDC8 EE0F 1327 5C7F  .............'\.
0006C4C0 7F7F 7F69 6768 786D 4E56 2AF5 E4D2 C7EE  ...ighxmNV*.....
0006C4D0 2709 C2AB B9D9 FA43 28EB 1E29 3032 5E4F  '......C(..)02^O
0006C4E0 204D 3706 FD05 D3D0 1B1D DDF2 250A EEF9   M7.........%...
0006C4F0 C4C9 1A1F 2241 4F3C 4B65 4523 1D35 0904  ...."AO<KeE#.5..
0006C500 5465 0F0A 2DEF D407 0FC5 D2C6 B4B2 B8A9  Te..-...........
0006C510 85B0 BCB9 D803 3303 F6DF BDD9 FC06 C6DA  ......3.........
0006C520 D8BD FFF7 09E9 F802 DBCC C2BF C104 371C  ..............7.
0006C530 3C37 4522 0F32 F6F2 F4E1 CFE0 E3CB DAD8  <7E".2..........
0006C540 F1FD 2944 11DF E5EC D703 2B2D 1F20 2818  ..)D......+-. (.
0006C550 1FF7 DAE4 1005 D5FF 2714 0E28 2913 402B  ........'..().@+
0006C560 153F 6246 1039 484D 5C6F 7820 2A38 2A50  .?bF.9HM\ox *8*P
0006C570 3D3E 0F20 1DEA DAD3 EED8 FC19 F10E F5F8  =>. ............
0006C580 1123 18DA E4E6 B1A2 959E C5FB 2C1E 2512  .#..........,.%.
>m
0006C590 E8E1 D9F4 F8F8 FBF9 130F FFE6 DAD4 DFF1  ................
0006C5A0 E5DB D7CD 041D 2E2D 2420 000A 0324 2108  .......-$ ...$!.
0006C5B0 1FFB E5CA D4DA B6BF E219 FBDE CCAF CCC2  ................
0006C5C0 BEB9 ADC4 B2BA C4C7 DCEC 221E 3B54 6073  ..........".;T`s
0006C5D0 627F 5E40 564F 5259 7D2E F10C E6C6 D0F0  b.^@VORY}.......
0006C5E0 D6B7 E2F4 E6FE F9D4 CEED 05FB 0F3A 3F3C  .............:?<
0006C5F0 6253 344B 7049 434B 18D5 C6E9 ED0E 4932  bS4KpICK......I2
0006C600 1E38 2F01 091A FCE4 090A F80C 0CE9 EF05  .8/.............
0006C610 F0E7 EE06 1110 1311 F2EA DDCF C3A7 BDCC  ................
0006C620 B8B1 C1BD B6EC 1012 0E0E 14F8 1935 221A  .............5".
0006C630 121C F4E4 03EA E1E4 F0D8 E3FC E2DD CBC7  ................
0006C640 D7E4 C5AE C7C0 A9AF B6BA BCE4 F322 3943  ............."9C
0006C650 4D23 1939 4A38 221D 0523 2A29 1E09 1A29  M#.9J8"..#*)...)
0006C660 1D27 4250 3940 4012 F501 DECB ED03 F606  .'BP9@@.........
0006C670 0CFD 2610 FBE8 F013 E9F8 CFBA C7D7 F0E2  ..&.............
0006C680 ECD4 E4FF 3371 7F7D 7D5D 4233 3309 F2FA  ....3q.}}]B33...
0006C690 02F9 EF0E 1200 1A06 E6F0 1219 F7E0 D0F2  ................
0006C6A0 140E E2F6 01B6 BBDC CEB9 9190 A8C1 DFF8  ................
0006C6B0 EDF8 2408 DDFD 1008 EAE8 EBE8 F9BB 99B7  ..$.............
0006C6C0 CFD4 FA31 4660 4E2F 2902 00EB D8D0 EDF4  ...1F`N/).......
>m
0006C6D0 DDD4 DED5 CBDF FAF7 FCE6 D0EE 06CA A9A7  ................
0006C6E0 C0DB D3D4 C6DB FAE0 E002 1317 203B 555D  ............ ;U]
0006C6F0 737F 7F55 6364 4244 6A5C 0FE6 F3E0 D3D2  s..UcdBDj\......
0006C700 B5AE D9D1 BFE0 E5D0 E311 1B1B 2720 1939  ............' .9
0006C710 4F3D 2C2E 2E2B 3139 2821 1E02 E0E0 0E05  O=,..+19(!......
0006C720 D6EC 1FF9 D2DC C4A5 A9C2 BFDD F6E8 DE00  ................
0006C730 27FB DAF0 0C16 03F7 E6D8 EBF1 C0BD DDC4  '...............
0006C740 B6EE FCED F8FE E7E1 F4DB CAE8 EBCC C7F6  ................
0006C750 FDFF 2617 DEDF 2924 FE20 2CE5 BEC6 CFD1  ..&...)$. ,.....
0006C760 F50D 2430 270D 053B 5C2E 050D 1104 3C51  ..$0'..;\.....<Q
0006C770 2725 352F 141E 1BF6 EC04 101A 211C 030F  '%5/........!...
0006C780 1E22 1114 2607 FA15 1E01 F8F1 D1D5 E9F5  ."..&...........
0006C790 FA0F 0BFC 192E 260F 2420 100A 113D 353C  ......&.$ ...=5<
0006C7A0 1EFE 0821 0E07 24FC D4CD D0EA FB00 EACC  ...!..$.........
0006C7B0 CEF1 F2E5 EBF3 E1D2 C3D0 DDF3 16FA F1EF  ................
0006C7C0 F0FD 01F6 D6DE DDDF FA25 1F05 1E05 E0DD  .........%......
0006C7D0 100B EFFC 070F 122D 13ED F0F0 D3DA 0617  .......-........
0006C7E0 F9E6 F2ED F811 02E4 E5F9 E2FB 3743 2A0A  ............7C*.
0006C7F0 0B1D 2425 07F6 0810 01F6 FE01 0718 293F  ..$%..........)?
0006C800 5160 5B51 5935 1A18 11FC 0816 2424 2611  Q`[QY5......$$&.
>m
0006C810 00F2 F9F9 0107 F2D8 D6D8 01FD D9E4 FD0B  ................
0006C820 2C41 3228 2716 1311 201A 1E27 1B07 EAE5  ,A2('... ..'....
0006C830 F3EE DDC7 ABAA D6F6 F306 F6F5 0400 F5ED  ................
0006C840 F3F1 EEF7 060F 0A12 03E9 CFBA C3D2 EDF7  ................
0006C850 FB17 3015 F4F7 EFFD 0401 02FF E4DC E1C9  ..0.............
0006C860 D7EC 0222 1F16 1C18 17FE E3EB F711 2511  ..."..........%.
0006C870 021A 2820 1612 190B 050C 100C 0602 F0FB  ..( ............
0006C880 EBE1 F50E 2316 2931 2D2F 3737 0E0B 1615  ....#.)1-/77....
0006C890 0910 1B04 0402 F600 F8F8 FFFE F5E5 F3FE  ................
0006C8A0 EAD1 C9CA C1D3 CFCF CDD4 EBFC 1214 1C14  ................
0006C8B0 2638 322F 2619 2D46 493C 3A32 1BF5 F0F7  &82/&.-FI<:2....
0006C8C0 0207 ECD1 D4D0 E0F1 EFE1 C1B3 BBD7 E3F1  ................
0006C8D0 FC04 1B21 200E 01ED DDCE B8BF E416 0808  ...! ...........
0006C8E0 FEF6 FF0B 10FF F4E6 F501 F6F3 EAE5 F4FF  ................
0006C8F0 1722 1418 1F12 F4DE D4CD C2B7 BCB4 C8CC  ."..............
0006C900 BCBF BEB2 BFEB 0B05 F5E3 DCDE 0C25 1005  .............%..
0006C910 060D 1B1A 2F3D 2916 1E34 444D 3B37 2F38  ..../=)..4DM;7/8
0006C920 4A47 4433 2C2B 271D 1114 1714 02F2 F1EE  JGD3,+'.........
0006C930 E2DD E2DF E0EB 0102 E8E8 D9C9 DDEF 060D  ................
0006C940 090A 0406 1921 1918 0FF5 F90B 1A16 1105  .....!..........
>
>m
0006C950 EAE1 EDEC E503 FEEC DCD4 CDC3 BAAB 9597  ................
0006C960 A7B6 B4C3 D6DA E501 0401 0700 F3FE 191D  ................
0006C970 1429 1E07 0D15 0619 3726 030B 01E4 E7E8  .)......7&......
0006C980 D9D8 E8E8 FE18 08ED CED5 001C 1711 1F24  ...............$
0006C990 2C30 363F 332D 2316 131F 2515 04ED D5D0  ,06?3-#...%.....
0006C9A0 F223 250D 0605 172C 3020 13FE D9E0 F3EA  .#%....,0 ......
0006C9B0 EFFB ECE3 F802 020A 1F0D 0014 1B0F 140B  ................
0006C9C0 01FA 1726 191A 2716 0713 0CFB F4DE CFD4  ...&..'.........
0006C9D0 E3DD D9F1 EED4 DAF4 E9DC E7D9 C7CF E1E3  ................
0006C9E0 D6EB 0A16 2B45 3A2C 3F33 00FC 0711 02F3  ....+E:,?3......
0006C9F0 CEB0 BFDD E6F4 FDF8 F709 1B1F 2222 0A01  ............""..
0006CA00 0C0B F7EF 00FC E8EC FA09 0C0C 07FC FD02  ................
0006CA10 02FE 0C1C 1A1D 2A1E 05F0 F9F8 142F 302E  ......*....../0.
0006CA20 2825 1500 F602 0DFA FBFF FF1D 333E 3731  (%..........3>71
0006CA30 2007 1F32 1F0C 05E9 D2DF E1E2 E709 FEED   ..2............
0006CA40 F7FA F4EE F0E9 DBFA 0D08 F6F9 E1E0 050F  ................
0006CA50 0F19 200F 0926 2B19 140A ECF0 060C 03F1  .. ..&+.........
0006CA60 E6D1 CED4 CFD2 CDC2 B9BD D7F9 0600 1117  ................
0006CA70 1F26 1D1B 1223 2A29 3331 2317 17FE 000F  .&...#*)31#.....
0006CA80 0A00 F3F3 EBE2 EAFF 06FE 01FD 0712 293E  ..............)>
>m
0006CA90 413C 2E2C 2217 FBF4 FFF5 F501 09F1 DEDA  A<.,"...........
0006CAA0 D4D2 E2F4 F8FD 02ED E0F1 0401 FD08 FEF7  ................
0006CAB0 091B 1917 140C 0E0B 1423 1E16 0B05 F9FB  .........#......
0006CAC0 0A06 FBF4 F6FF 0E0A FBFB ECD5 D1DB DDD9  ................
0006CAD0 D6D3 D4DD E4DA E4FB FBFA 0717 2024 2521  ............ $%!
0006CAE0 1513 2518 0501 FD00 0B15 1812 07F9 F6FE  ..%.............
0006CAF0 0911 1923 200C 0005 120A FC02 0B06 1928  ...# ..........(
0006CB00 1402 0303 E9C4 BAC9 CCD5 D7D8 F20C 1312  ................
0006CB10 0901 F8F5 0A1C 0F09 0B06 100A F7EB E4E9  ................
0006CB20 E7DE DCDB D7E3 DCD9 F711 1F15 0B0F 05F9  ................
0006CB30 F1ED EDF2 EEED 00FF F6EE EBF7 02FD 000F  ................
0006CB40 080F 0E0B 1413 1E21 0D04 F3E7 E7F4 FE14  .......!........
0006CB50 1818 1911 1917 2129 1F16 1210 FE0A 0C01  ......!)........
0006CB60 F9F1 E6E5 F603 0302 0502 FBFA F7EA E2E1  ................
0006CB70 E1DD E7FC F8EB F3EC EDE9 F3F4 F3F6 0103  ................
0006CB80 0812 0BFD FBF3 E6E0 E3E7 EBE0 D6D4 DAE6  ................
0006CB90 E9EA F9FC FB0F 2D34 3342 3E30 3934 14FA  ......-43B>094..
0006CBA0 FCF5 E9EB EAE6 EAF0 E5D5 DAE5 E0DE E0DE  ................
0006CBB0 E5EE F8F3 EBFD 0A04 0D23 282B 313E 3228  .........#(+1>2(
0006CBC0 261A 1E29 2217 1308 0712 170F FBF6 FA02  &..)"...........

>m
0006CBD0 FEF5 E4E1 E0DD DEDC E9F9 FA0C 1001 F4F4  ................
0006CBE0 F6FA 0D18 140B 0C1A 1B28 1D01 EFE6 EAE5  .........(......
0006CBF0 E4DE D5D2 D3DC DAE5 DED7 F20E 1E02 FAFA  ................
0006CC00 FD04 0C10 1318 1813 1A14 0A09 06FF F3F1  ................
0006CC10 F3E8 E9FD 05F9 F603 02FE FCF3 E4E0 E6E8  ................
0006CC20 F1FE 0211 1C19 08F6 0811 0C12 1821 2C34  .............!,4
0006CC30 17FD 0206 02FC 0E08 0819 150A 0D24 251D  .............$%.
0006CC40 1919 0DFE 07FE F3FA 080C 0E21 1D05 080F  ...........!....
0006CC50 120C 03F6 EAFC FEFB 0102 02FD 040B 0C03  ................
0006CC60 FF02 FB09 140F 1821 1A06 FDF9 F3F5 FAF1  .......!........
0006CC70 E4F3 F9F1 E8EB F5F4 EDE1 DFE3 F2F8 EDE8  ................
0006CC80 E7EE F1EB DFD6 E1ED F0F1 0000 F4F7 F8F9  ................
0006CC90 0719 1A11 08FC F2E7 E4E9 F9FA FC14 1E22  ..............."
0006CCA0 2320 1A18 1613 1F31 2F1E 1D1D 0D15 2D31  # .....1/.....-1
0006CCB0 200F 00F7 F5FA 0703 F8F4 F2FC 0918 1918   ...............
0006CCC0 1614 0BFF FDF0 F0FC 0504 0000 F6F3 F7F9  ................
0006CCD0 0404 050E 100C 0AFE EDEE ECEC F2FD FFFD  ................
0006CCE0 050A 0B15 1308 0606 FCF6 F8FA FCFF 0607  ................
0006CCF0 0302 0100 F2E4 D5C9 C7D6 E0EA F4F4 F6FF  ................
0006CD00 0C05 0A0E 07F9 EBF2 F2F5 F0E7 EBFA 110D  ................
>m
0006CD10 0410 1912 090C 0A08 0603 05FD F7F5 F6FD  ................
0006CD20 0905 F3F2 0101 EFF3 010B 1924 1815 1617  ...........$....
0006CD30 1001 F4FF 0C06 F9F2 F4F8 06FD EDE7 EAF8  ................
0006CD40 050A 0307 0A0A 1416 130E 0F09 FE05 0407  ................
0006CD50 0200 FDF0 EAEF F1EC F1FD F7F9 0202 F3E1  ................
0006CD60 E6EE FA06 0F0E 0B0E 060A 0A11 1607 04FB  ................
0006CD70 F9FA FCF6 EBE5 E8EE F8FA F2EB F004 0908  ................
0006CD80 04FA F9F9 FCFA F9FA F9F4 F5F7 E8E7 F9FA  ................
0006CD90 F2EC EBE9 E3E6 E5DD E804 1925 2A1E 130A  ...........%*...
0006CDA0 FBEF EFFF 0C0D 1013 1623 2718 0A0B 0401  .........#'.....
0006CDB0 01FE FFFB 0705 FCF8 F6F8 F8FA F8FE 0306  ................
0006CDC0 0B08 0C0B 050D 0D0C 0603 00F2 E7E7 EBE1  ................
0006CDD0 E6F0 F1ED F301 FF01 00F7 EFF4 010F 1614  ................
0006CDE0 0E0C 0C12 0C04 0002 0712 1002 F8FA FDF5  ................
0006CDF0 F0F0 EEF6 0200 FD04 03FA 03FE F3F1 F705  ................
0006CE00 FDFA FCF9 F5FB 03FA F800 1219 1D2A 2519  .............*%.
0006CE10 150F FDFE 0D05 0003 04F4 ECEF ECE9 EBE7  ................
0006CE20 E3EA FC04 FFF6 F3EE EEFB FF00 0E13 060A  ................
0006CE30 1917 0E0A 06F5 F7FF F8F9 F9EB E4F2 FBFD  ................
0006CE40 FE02 FCFF 0E11 0804 0D09 FC03 0F0D 0911  ................

>m
0006CE50 0C08 0E08 F9F7 0403 F8FA FFF6 F200 FDF5  ................
0006CE60 EDEA E6EF FC03 0408 1314 1E23 211C 2121  ...........#!.!!
0006CE70 1818 0D01 F9FB FDF8 F7FD 050A 1A20 140E  ............. ..
0006CE80 0C05 0506 04F9 F6F8 F5F2 F502 0506 0600  ................
0006CE90 FBFA 0704 FC02 0B08 FF08 0A0C 130E 02F4  ................
0006CEA0 FDFF FBFA FEF9 F4FB F8EA E4E4 E2DF E5F0  ................
0006CEB0 F4FA FDF0 EEF9 0307 0C0D 00F7 F2F7 F8F7  ................
0006CEC0 FDF9 FD0E 1B15 090B 0D15 171C 1F15 1009  ................
0006CED0 070C 0B07 FF07 02F7 F2F3 F3EC F0F3 FAFC  ................
0006CEE0 F9FB F6F6 F2F9 FF05 1018 1914 181D 2124  ..............!$
0006CEF0 201A 0D07 0504 FFF3 EBE9 F1F9 FBFE FDFA   ...............
0006CF00 F1F9 0107 110E 0600 0404 0817 2329 2420  ............#)$
0006CF10 1616 1403 F8F4 F7F1 E4DC DDDD D2D3 CED3  ................
0006CF20 E4ED F3F3 F3F7 FC00 F9F4 F0F2 F4FB 0807  ................
0006CF30 0308 0F13 0C06 0202 00F6 F8FB 0505 0202  ................
0006CF40 0400 F7FE 0302 0A12 0EFF 01FE F5FA 080F  ................
0006CF50 080E 0B00 FE00 0B09 0505 0301 0B10 05FF  ................
0006CF60 04FE F6F7 F8F4 F5F4 EFF4 02FA EAEF F1EF  ................
0006CF70 F901 0408 1714 0D14 1613 0B0F 0B03 0B11  ................
0006CF80 0F00 03F8 EBF6 FEFD F3F0 EAE5 EEEF E9E0  ................
>m
0006CF90 DFE7 EBF2 FAFC FF03 0C0A 1119 130F 0804  ................
0006CFA0 FF07 06FD FDF8 EFE8 ECF0 ECEF F3F2 F3FF  ................
0006CFB0 0905 00FD 01FF FF0B 0D06 01F9 F5FB FFFC  ................
0006CFC0 FBFC F9F7 F0EF F3F0 F0F2 FBFD 020B 0A0C  ................
0006CFD0 110A 0913 1B1A 1A17 191E 1605 FDFF FCEF  ................
0006CFE0 F5FA FD01 FFFE F800 02FC FAFB FBFC 050F  ................
0006CFF0 1107 FCFA F6F9 FFFF FD02 090B 0B0B 0904  ................
0006D000 FEF8 F6F9 F9F9 FDFB F8FC FBFD 0001 F6F0  ................
0006D010 F3F7 F900 FFFB FAFD FFFF 0201 0305 0304  ................
0006D020 0506 0801 FDFF 060A 130E FEF6 F0F1 F3FF  ................
0006D030 00FA FFFE F9FA FE04 0B15 150F 1017 140A  ................
0006D040 FEF6 F5FA FAF4 EFF4 F2F1 F8FC FDFC FDFF  ................
0006D050 FE03 0300 0106 0E0F 0E0E 1009 0503 0104  ................
0006D060 0605 060B 0804 FEF5 F6EE EDEE F2F8 F6F6  ................
0006D070 FC00 FCF7 F9F9 FEFC FFFD 0312 0F09 070A  ................
0006D080 0902 0102 0100 01FB F9FF FDFA F9FE FFFD  ................
0006D090 FF05 0709 0B09 0F15 100F 0E0E 0F0E 100C  ................
0006D0A0 090E 0F0C 0D0D 04FC 0108 0503 0600 FE04  ................
0006D0B0 01FB FC02 FFFC FF01 FCFC 0602 FD01 FFF9  ................
0006D0C0 FAFE F8F2 FA00 F6ED ECE7 E2E5 E9E9 F3FD  ................

>m
0006D0D0 0205 0708 0C0B 0908 00FD 0003 FF02 03FD  ................
0006D0E0 FEFF FBFF 0A08 0F15 0AFF FFFE F7F8 FAF8  ................
0006D0F0 FA02 06FF FFFE FF02 080C 0504 0809 0407  ................
0006D100 03FE 080D 0805 0F11 0702 00F9 F2F4 FAF8  ................
0006D110 F6FA 0209 0A0C 0903 0405 0203 0307 1015  ................
0006D120 1110 1515 120B 0401 0105 0600 F7F3 F2F3  ................
0006D130 F5EE E9F2 FC00 0101 FBF6 FB02 0605 0B0D  ................
0006D140 05FF FCFD FD01 03FD FCFF FCFD 00FA EBE9  ................
0006D150 EFEB E7E6 E9E5 EAF5 FC00 01FA F8FB FAF8  ................
0006D160 FB04 0806 0909 0407 0E0A 0305 0E0F 0C08  ................
0006D170 FFF7 FA00 FFFD 0104 01FC FAF7 F2F4 F9FC  ................
0006D180 030D 0F0F 0E0A 0606 0404 01FC FDFE FFFE  ................
0006D190 FF04 03FF FAFD 0201 FF02 04FF FF01 FCFD  ................
0006D1A0 0102 FAFC 060C 0601 03FC F6F8 FE02 0103  ................
0006D1B0 01FE 00FE FCFB F8F6 F8FB FBFD FEFD FAFD  ................
0006D1C0 0705 03FF F8F7 FA00 060C 110E 0203 0806  ................
0006D1D0 0305 01F9 F7F4 F3F1 F4F2 E9EB EDEC ECF4  ................
0006D1E0 F8F7 FCFE 0204 0F12 0807 0500 0104 02FC  ................
0006D1F0 FE01 050A 0C09 0001 FFFA FBFF 0000 0408  ................
0006D200 090A 0D09 0408 0C0B 0B09 0906 00FE FFFF  ................
>m
0006D210 FCFA FD01 0303 FFFC F5F2 F6FB FDFF 00FC  ................
0006D220 F7F2 F1F5 F6F8 FD02 0403 060B 0A08 0300  ................
0006D230 0203 0304 01F7 F7FB FCF8 F3F3 EFF2 F9FF  ................
0006D240 01FC FCFC FE06 0907 0711 1007 0B0B 0401  ................
0006D250 04FE FC01 0100 FDFE FBF9 FAF8 F9FB 0000  ................
0006D260 FE02 0205 0609 06FF 0609 0606 0603 0208  ................
0006D270 0907 0506 01FB FCFB F6F9 F9F4 F8F9 F8F6  ................
0006D280 F7F8 FBFC FDFF 0004 0503 060B 0F0D 0F15  ................
0006D290 130D 0E10 100B 02FB FCFD F6F1 F0F4 F3EC  ................
0006D2A0 EFEF F3F3 F1F0 F1F8 0003 0407 0806 0A0E  ................
0006D2B0 0E10 07FE FC00 0200 0609 0500 FEFC FEFD  ................
0006D2C0 FCFE 0000 0304 0608 0400 FDFF 0306 0604  ................
0006D2D0 0306 0603 0607 0506 0401 0306 0500 00FF  ................
0006D2E0 FBFC FEFD FBFA F6F4 F8F8 F5F5 F9FC FDFF  ................
0006D2F0 0102 0505 0302 0303 0303 0403 FFFF 00FE  ................
0006D300 FEFE FEFD FE02 0606 0605 0704 0304 0402  ................
0006D310 0201 FEFE 0000 FEFC FCFC FE00 FFFE 0000  ................
0006D320 0000 0000 FFFF FFFE 0002 0204 0402 0001  ................
0006D330 0302 0101 0200 0002 01FF FF00 0000 0000  ................
0006D340 0000 FFFE FEFF FF00 0100 FF00 0000 0000  ................

>m
0006D350 0000 0000 0000 0100 0102 0101 0101 0000  ................
0006D360 0000 0000 0000 0000 0001 0101 0101 0000  ................
0006D370 0000 0000 0000 0000 0000 0000 0000 0000  ................
0006D380 0000 0000 0000 0000 0000 0000 0000 


; Sample 03
sample_file_03
                ; --------------------- Sound Sample 3 -------------------
                ; Start Address: $0006D38E
                ; Name:          HITBASS-C1
>m 0006D38E
0006D38E 464F 524D 0000 1464 3853 5658 5648 4452  FORM...d8SVXVHDR
0006D39E 0000 0014 0000 1404 0000 0000 0000 0020  ...............
0006D3AE 20AB 0100 0001 0000 4E41 4D45 0000 0014   .......NAME....
0006D3BE 4849 5442 4153 532D 4331 0000 0000 0000  HITBASS-C1......
0006D3CE 0000 0000 414E 4E4F 0000 0014 4175 6469  ....ANNO....Audi
0006D3DE 6F20 4D61 7374 6572 2049 4900 0000 0000  o Master II.....
0006D3EE 424F 4459 0000 1404 0000 0000 0000 0000  BODY............
0006D3FE F9F0 F2F1 F1F1 F115 0B0B 0FFB 00F9 EDD0  ................
0006D40E DED8 E1D6 F2ED F8FE 08F9 2CF8 2C16 321A  ..........,.,.2.
0006D41E 4D2B 5626 523B 322E 3526 2F1E 2EEA ECF1  M+V&R;2.5&/.....
0006D42E CFF2 F6D0 A4A6 8F9E A38E D5A3 AFB4 8B89  ................
0006D43E AFBA C2E0 DC25 0E0D 111C 2148 9F27 7F7F  .....%....!H.'..
0006D44E 7F7C 7F7F 7F7F 7F7F 7F7D 7976 7470 6D6C  .|.......}yvtpml
0006D45E 6967 5050 2D2C 1514 AFE4 A4AA 9180 8281  igPP-,..........
0006D46E 8180 8181 8181 8181 8081 8181 8181 8181  ................
0006D47E 8183 8689 8D91 9599 9DA4 AFB5 C0CC D2EA  ................
0006D48E E6FB 090B 1925 2C38 3854 695A 717F 7F7F  .....%,88TiZq...
0006D49E 7F7F 7F7F 7F7F 7F7F 7F7F 7F7F 7F7F 7F7D  ...............}
0006D4AE 7A77 7471 6E6B 6866 6360 5D5B 5856 5351  zwtqnkhfc`][XVSQ
0006D4BE 4B44 3B2C 2C21 0FFA F3F5 E8CF CDC1 BAB7  KD;,,!..........

>m
0006D4CE B0A2 9F92 8B81 8181 8181 8181 8181 8181  ................
0006D4DE 8181 8181 8181 8181 8181 8383 858C 9D95  ................
0006D4EE 9EA2 ABAB B9BC C2BC CDCD D5D3 D9DC E0DD  ................
0006D4FE DDE9 EAEA F1F5 F9FE 050E 0D0D 141F 2022  .............. "
0006D50E 2920 2D2D 3636 3A35 393F 4543 4949 4A42  ) --66:59?ECIIJB
0006D51E 4745 4043 3E3E 3D43 3735 342C 3A38 3136  GE@C>>=C754,:816
0006D52E 433B 3D3B 4441 4146 4151 4A4E 4D54 4D50  C;=;DAAFAQJNMTMP
0006D53E 494F 5146 4E4A 3E3E 4634 302A 2A2D 1D1F  IOQFNJ>>F40**-..
0006D54E 1E1B 120D 0C06 0D0B 0304 F9FB FCFF F8F5  ................
0006D55E F4F3 F2EE EEEF EFEB ECE8 E1EF EEEC EFE6  ................
0006D56E EBE5 E4F0 E6DB E6EA E2DE D3DE CCE3 DDDE  ................
0006D57E E1ED F5FC ECF7 060A 0E08 1316 140E 1514  ................
0006D58E 0F0C 0F0A 090A 0007 0A03 00F5 F4EF E4DD  ................
0006D59E DACF CCC6 BEB8 BBB1 A7A6 9F9B 9993 9087  ................
0006D5AE 8485 8D88 8C8E 9195 9A9B 9EA1 A5A5 A7AA  ................
0006D5BE ADB1 B2B3 BDC9 CED6 E1E6 F7FA 0312 1D22  ..............."
0006D5CE 2C2F 383F 4654 5C5E 6972 7177 7C79 7D7F  ,/8?FT\^irqw|y}.
0006D5DE 7F7F 7F7F 7F7F 7E7F 7979 7471 7065 5C60  ......~.yytqpe\`
0006D5EE 5A4C 4742 3738 2B27 2120 1C18 1718 1414  ZLGB78+'! ......
0006D5FE 150B 0F0E 0900 0302 0300 F9F0 F1EE EDEC  ................
>m
0006D60E EAE6 E1E3 E0DF D8DC DCDF D8D8 D5D2 CDCB  ................
0006D61E C7C2 BEBC C3BE C2BD BABB BBB4 B2B3 AEB0  ................
0006D62E AFA8 A9A6 A49F A1A5 AAAB ADB6 B7B5 C0C6  ................
0006D63E C4C6 D3D9 E2E8 E9EE F0F7 FAFD FD01 060C  ................
0006D64E 0E0E 1F1F 2027 2E33 2F35 3938 3C3D 4347  .... '.3/598<=CG
0006D65E 494B 4C4E 5755 5859 5E5D 5D5E 5C5D 5956  IKLNWUXY^]]^\]YV
0006D66E 5256 564D 4D4C 4B4A 4146 413D 3636 3430  RVVMMLKJAFA=6640
0006D67E 2B26 1E18 1D16 1515 130F 0E09 0B0A 0602  +&..............
0006D68E 0504 FDFB F7F2 F0E9 E7E1 E2E0 DEE2 D7D6  ................
0006D69E D4D3 CBCA C6C5 C3C0 BFBD B9BA B6B3 B1B3  ................
0006D6AE B4AB AAA7 A8A5 A5A7 A8A8 A5A5 A5AB ABAD  ................
0006D6BE AEB8 BCC1 C4C8 D0D1 D9E3 E1EC F1F5 FF02  ................
0006D6CE 0C13 1012 151D 1F1C 2526 282F 3436 3532  ........%&(/4652
0006D6DE 3C3D 4043 4046 4948 4443 4243 443E 3A3C  <=@C@FIHDCBCD>:<
0006D6EE 4140 3D37 3337 322D 2728 261D 2019 1613  A@=7372-'(&. ...
0006D6FE 1713 1108 0D08 070A 0003 0504 0802 0005  ................
0006D70E 02FF FE03 0302 FC02 0600 FD02 0000 0405  ................
0006D71E 0405 0603 00FE FBFB F7F1 EFEE EDE9 E3E4  ................
0006D72E E1E0 DFDB D9D9 DBD8 D5D4 D3D2 D0CC CDD0  ................
0006D73E D3CD CCD3 D3D4 D2D7 D8DA DFDF E1E2 E5E6  ................

>m
0006D74E E4EC F0EC EDF7 FAFE FDFF 0409 070B 0E10  ................
0006D75E 1114 1519 1015 1516 1315 0F17 1318 1C16  ................
0006D76E 1617 1619 1818 191A 181A 1D1B 1D16 1D19  ................
0006D77E 1E1B 1B1C 1612 1513 1112 100E 0B05 0504  ................
0006D78E FEFB FCFB FCF6 F6F6 F6F2 F3F3 EEF5 F3F7  ................
0006D79E F4F1 F1F4 F5F2 F2F9 FAF9 F9FB FCFD FE00  ................
0006D7AE 0206 080C 1014 1C20 1E23 2A28 2B2A 2D2D  ....... .#*(+*--
0006D7BE 2E30 2F2C 2825 1F1C 1B16 1512 0E08 0504  .0/,(%..........
0006D7CE 00FD FAFA F6F4 F1EC E9E4 E4DD DDDC D7D5  ................
0006D7DE D5D2 CCCB CAC8 CCCD CDCA C9CA CDD0 D0D1  ................
0006D7EE D6DC D4DA DBE0 DFDE E3E7 E9E7 EEF3 F4F4  ................
0006D7FE F7FE FE02 0401 0604 050D 0D0B 0C10 1212  ................
0006D80E 1013 1414 1316 1419 1818 1719 1C19 1E1D  ................
0006D81E 1F1E 1F20 1E1B 1D1F 1816 150F 0E0D 090A  ... ............
0006D82E 0506 0505 0304 02FE 0100 FDFF FCFA FBFD  ................
0006D83E FCF8 F9F9 FEFD FBFB FAFE FEFA F8FA F7FC  ................
0006D84E FCFB FBFF FCFD FC01 0001 0409 0808 0B0A  ................
0006D85E 090A 0606 0300 0000 00FE FAF9 FEFE FFFF  ................
0006D86E FDFD FF03 01FE 02FF 0200 0107 0604 0705  ................
0006D87E 0504 0505 0206 0603 0205 01FF 0300 FE02  ................
>m
0006D88E 0000 FCFD 02FD FE01 FBF9 FF01 FAF8 FCFF  ................
0006D89E 00FB 0001 0102 0207 0707 0808 0407 0805  ................
0006D8AE 0908 0903 0508 0606 0709 100C 080B 0D0A  ................
0006D8BE 0A08 0806 0909 0601 0501 FAF5 F9FA F8EF  ................
0006D8CE EBEC E7E5 E0E0 E3E4 DFDC DEDC DEDF DDDC  ................
0006D8DE E2E2 E4E5 E8EA EAED EEF0 F2F5 F7FE FCFE  ................
0006D8EE FD00 0309 0808 0709 0B08 0E10 0E0F 0E10  ................
0006D8FE 0F0E 0F12 1215 1714 1312 130F 100E 0F0E  ................
0006D90E 0910 0C0E 0B06 0403 0402 0303 0303 0500  ................
0006D91E 0A09 060C 100D 0E14 1411 1317 1614 1612  ................
0006D92E 1113 110A 0B07 0203 0301 FDF8 F4F0 EDEA  ................
0006D93E E5E5 DDDB D7D5 D3CE C7C9 C5C7 C5C2 C1C0  ................
0006D94E C3C1 C8CE D1D7 DDE1 E7EB F2F6 FBFE 0306  ................
0006D95E 090D 1418 232A 2F34 393E 4746 484F 5152  ....#*/49>GFHOQR
0006D96E 5655 5856 5255 5550 4E4A 453B 3531 2F28  VUXVRUUPNJE;51/(
0006D97E 1E1B 1B12 0B07 04FD FCFC F5F0 EAED ECE2  ................
0006D98E DFDB DADD DFDD DBDB DDDC D9DA DCD9 D9DC  ................
0006D99E D6D7 DADA DEE0 E1DE E4EA EAE8 EAEA E7E7  ................
0006D9AE EAE7 E8E2 E3E0 E2DC D9DC DCDA D6D6 D8D9  ................
0006D9BE D8D9 D7D9 DADB DBDC DEE3 E4E4 E8EF ECEF  ................

>m
0006D9CE F1F7 F8F9 FBFB FF01 0206 0505 0A0B 0E12  ................
0006D9DE 1518 1D1B 2025 2628 2F32 3332 383B 3C40  .... %&(/2328;<@
0006D9EE 3F43 4749 484B 4A4C 484C 4C49 4749 4544  ?CGIHKJLHLLIGIED
0006D9FE 3E3B 3A39 3533 2D28 221F 1B13 0908 05FF  >;:953-(".......
0006DA0E FAF5 EFEC EBEC E8E9 E8E7 E7E8 E7E9 E9EA  ................
0006DA1E EAEA EDED E9E9 E7ED EDE8 ECED ECE9 E7E7  ................
0006DA2E E3DF DEDA D4D5 D1CE C9C7 C6C6 C3C8 C8C7  ................
0006DA3E C8C5 C1C3 BEC0 BEBF BFC2 C0C1 C4C4 C3C2  ................
0006DA4E C7CD D0D1 D6DC E0E0 E9ED F2F7 FA02 0508  ................
0006DA5E 1016 161B 2124 2829 2B30 3230 3131 3033  ....!$()+0201103
0006DA6E 3235 3536 373A 3E3F 3A3E 4040 4341 3F3C  25567:>?:>@@CA?<
0006DA7E 3E3D 3937 3B3A 3936 3433 3734 3232 2E2F  >=97;:96437422./
0006DA8E 2C26 2322 1F19 1711 100E 0405 FFFC FBFA  ,&#"............
0006DA9E FAFC F8F8 F3F6 F1EE EAED E6E2 E1E0 DBDA  ................
0006DAAE DBDA D9D8 D7D6 D4D5 D4D2 D2D1 D4D2 D2D5  ................
0006DABE D4D3 D5D8 D8DC DCDB E0E4 E3E4 E6E5 E6E8  ................
0006DACE E8E9 EAEB F0F3 F1F1 F3F3 F9FC FFFE 0103  ................
0006DADE 070B 0D09 0B0B 0F0E 0A0A 090B 0907 0807  ................
0006DAEE 0807 0807 0505 0506 0607 0E17 1311 1113  ................
0006DAFE 1212 120F 1212 1111 1211 0E0E 0F0F 0E0C  ................
>m
0006DB0E 0D0E 0E0B 0B0A 090A 0A09 0907 0706 0402  ................
0006DB1E 02FE FDFB FBF8 F5F3 F3F2 F0ED EEEE EEEC  ................
0006DB2E EAEB ECEB E8EB EBED ECEB ECF1 F2F1 F0F0  ................
0006DB3E F5F4 F4F6 F5FB FEFF 0101 0506 0B0C 0D0E  ................
0006DB4E 1317 1919 1B1C 1F20 2423 2426 2B28 2A28  ....... $#$&+(*(
0006DB5E 2A2B 2928 2824 2320 2122 1C18 1615 100D  *+)(($# !"......
0006DB6E 0907 0500 0000 FBF9 F8F5 F3EF EAE9 E7E7  ................
0006DB7E E4E1 E0DD DEDE E0E0 DEE1 E0E3 E6E8 ECEF  ................
0006DB8E EFF2 F9FB FC01 0106 090C 1011 1213 1313  ................
0006DB9E 1213 1212 110D 0908 02FF FCF9 F7F3 EFF3  ................
0006DBAE EEE9 E8E5 DEDB D8D6 D3CC CECE CCCB C9CC  ................
0006DBBE CACA CACB CBCD CDCE D0D1 D4DA DFE4 E8ED  ................
0006DBCE EFEF F4FA FE01 060B 1012 1419 1C1E 2125  ..............!%
0006DBDE 292C 2E2F 3033 3230 3132 3031 3032 3131  ),./032012010211
0006DBEE 2F31 2F2F 2D2B 2C2E 2E2A 2927 2725 221F  /1//-+,..*)''%".
0006DBFE 1D1B 1815 1514 1212 110E 0908 0704 01FF  ................
0006DC0E FDFE FEFA FAF9 F8F7 F5F6 F5F5 F7F5 F4F5  ................
0006DC1E F3F0 EFF1 EFEE ECE9 EBEA EAE8 E7E6 E6E4  ................
0006DC2E E4E3 E1E0 DFE0 E1E0 E1E3 E2E1 E1E1 E3E3  ................
0006DC3E E2E4 E4E7 E8EA EBED EDEF F2F3 F6F7 F9F9  ................

>m
0006DC4E FBFD FF00 0203 0607 0909 0A0A 0B0D 0E10  ................
0006DC5E 0F10 1111 1111 1212 1314 1616 1618 1A1B  ................
0006DC6E 1B1B 1E1F 1F1F 2222 2121 1F1F 201E 1F1D  ......""!!.. ...
0006DC7E 1C1B 1A19 1614 1211 0E0C 0904 01FE F9F8  ................
0006DC8E F5F0 EDEA E8E5 E2E1 DEDF DDDC D9D8 D8D8  ................
0006DC9E D8D7 D9D8 D7DC DCDD DFE0 E3E5 E7E8 EAEB  ................
0006DCAE EDF0 F2F4 F5F7 F9FB FBFC FDFE 0103 0407  ................
0006DCBE 0808 0A09 090A 090A 090A 0A09 090A 0A0A  ................
0006DCCE 0B0C 0C0C 0B09 0B0A 0A0B 0A0D 0D0E 0D0E  ................
0006DCDE 1013 1616 1618 1918 191B 1A19 1817 1716  ................
0006DCEE 1613 1414 1513 1213 1415 1515 1414 1213  ................
0006DCFE 0F10 0E0C 0B0C 0D0B 0908 0705 0200 00FE  ................
0006DD0E FBF9 F6F6 F2EF ECEA E6E3 E1E0 DFDF DEDF  ................
0006DD1E DDDD DAD9 DAD9 D9D8 D6D6 D5D6 D6D7 D9D9  ................
0006DD2E DCDE E1E2 E4E6 E7E9 EAEC EEEF F0F3 F4F4  ................
0006DD3E F6F5 F8F9 FBFC FCFD 0001 0101 0203 0607  ................
0006DD4E 0A0B 0C0C 0F10 1314 1517 191C 1D1D 1F22  ..............."
0006DD5E 2325 2526 292A 2E2E 2E2F 302E 2E2D 2B29  #%%&)*.../0..-+)
0006DD6E 2626 2423 2220 1E1B 1A17 1611 0F0D 0B08  &&$#" ..........
0006DD7E 0504 02FF FEFE FBF9 F7F5 F3F4 F2F0 EEED  ................
>m
0006DD8E EAE8 E7E7 E4E3 E0E1 E1DF DEDD DCDC DAD9  ................
0006DD9E D8D8 D8D9 D6D6 D7D7 D6D8 DADC DCDD E0E2  ................
0006DDAE E4E6 E8EB EFF1 F4F6 FAFF 0205 070A 0E0F  ................
0006DDBE 1011 1214 1817 1819 1B1C 1D1C 1C1C 1D1D  ................
0006DDCE 1D1E 1F1E 1F1D 1C1D 1C1B 1A19 1815 1315  ................
0006DDDE 1414 1414 1414 1314 1414 1414 1417 1515  ................
0006DDEE 1413 1311 100F 0F0D 0B0B 0907 0604 03FF  ................
0006DDFE FDF8 F6F4 F1EC EAE7 E3E0 DDDB DAD6 D5D4  ................
0006DE0E D3D2 D0D0 CFCF CFCF CED0 D3D2 D6D9 DBDD  ................
0006DE1E E0E2 E6E9 EAEC EFF0 F2F4 F7F8 FBFC FE01  ................
0006DE2E 0204 0707 0A0E 1010 1113 1616 1516 1718  ................
0006DE3E 1718 1918 1817 1716 1515 1415 1415 1416  ................
0006DE4E 1615 1514 1414 1314 1313 1312 1112 1310  ................
0006DE5E 110F 0F0F 0D0C 0B0A 0909 0707 0706 0808  ................
0006DE6E 0708 0807 0807 0607 0602 0101 01FF FEFC  ................
0006DE7E FBFA F7F6 F6F5 F4F1 F1F2 F1F0 F0EF EFEF  ................
0006DE8E ECEC EBEC EBEB EAE8 E7E7 E8E8 E8E8 E7E8  ................
0006DE9E E9EB EBEA EBEE EFF0 EFF1 F3F3 F2F4 F4F6  ................
0006DEAE F6F9 FAF9 FBFC FD01 0100 0305 0608 090A  ................
0006DEBE 0B0C 0D0E 0D11 1012 1313 1515 1616 1718  ................

>m
0006DECE 1817 1718 1716 1714 1413 1213 1010 0F0D  ................
0006DEDE 0D0A 0908 0606 0403 0301 0100 FFFD FEFC  ................
0006DEEE FBFB FBFA F9F9 FAF9 F9F9 F8F6 F4F3 F3F2  ................
0006DEFE F1F2 F2F2 F3F2 F3F5 F5F5 F7F8 FAFA FBFB  ................
0006DF0E FCFD FDFE FFFF 0101 0203 0405 0505 0505  ................
0006DF1E 0605 0605 0606 0504 0505 0402 0303 0100  ................
0006DF2E 0000 FFFE FCFC FCFB FAFA F8F8 F7F8 F6F7  ................
0006DF3E F7F7 F6F7 F8F8 F7F8 F7F8 F7F8 F9FA FAFB  ................
0006DF4E FE00 FF01 0304 0505 0407 0707 0808 090A  ................
0006DF5E 0A0A 0B0B 0C0B 0A0B 0B0A 0A09 0908 0706  ................
0006DF6E 0605 0503 0203 0301 0101 FFFE FDFE FDFD  ................
0006DF7E FDFC FCFB FBFB FAFB FBFC FDFC FDFD FDFF  ................
0006DF8E FF00 0000 0000 00FF 0000 0102 0202 0303  ................
0006DF9E 0303 0303 0303 0304 0301 0101 0100 0203  ................
0006DFAE 0201 0202 0100 00FE FFFD FDFC FCFC FAFB  ................
0006DFBE FBFB FAFA FAF9 F8F8 F6F6 F5F6 F6F6 F5F7  ................
0006DFCE F7F9 F8F8 F8F9 FAFA FBFB FCFE FEFE FFFF  ................
0006DFDE 0101 0203 0304 0605 0708 0808 0809 0909  ................
0006DFEE 0809 0808 0808 0709 0806 0606 0405 0503  ................
0006DFFE 0303 0201 0200 0000 FF00 0001 0100 0100  ................
>m
0006E00E 0000 0001 0101 0202 0102 0403 0201 0303  ................
0006E01E 0203 0302 0202 0202 0102 0201 0100 FF00  ................
0006E02E FFFF 00FF FFFE FFFE FEFD FCFC FDFC FCFC  ................
0006E03E FCFD FDFC FDFD FDFE FDFD FEFE FEFF FEFF  ................
0006E04E FEFE FEFD FDFF FFFE FFFD FDFE FDFE FDFC  ................
0006E05E FEFD FDFD FCFD FDFC FCFD FEFE FDFE FFFE  ................
0006E06E FEFF 0000 0101 0001 0102 0202 0302 0303  ................
0006E07E 0404 0304 0404 0302 0305 0404 0506 0605  ................
0006E08E 0505 0504 0304 0302 0301 0101 0101 0100  ................
0006E09E 0001 0000 0100 0200 0101 00FF FEFF FDFC  ................
0006E0AE FCFD FDFB FCFC FCFC FCFC FDFD FCFC FCFD  ................
0006E0BE FCFD FCFD FCFC FDFE FFFF FEFE 00FF 00FF  ................
0006E0CE 0001 0100 0202 0303 0203 0303 0403 0404  ................
0006E0DE 0404 0505 0505 0605 0505 0504 0504 0404  ................
0006E0EE 0202 0202 0201 0000 0100 00FF FFFF FEFE  ................
0006E0FE FEFE FEFD FDFE FEFE FDFC FCFD FCFC FDFD  ................
0006E10E FDFD FDFD FDFD FDFD FEFD FCFD FDFD FDFD  ................
0006E11E FEFE FFFF FF00 0000 0100 0102 0102 0202  ................
0006E12E 0302 0201 0202 0201 0002 0202 0201 0102  ................
0006E13E 0100 0101 0101 FF00 0000 0101 0102 0203  ................

>m
0006E14E 0203 0303 0203 0302 0302 0303 0202 0303  ................
0006E15E 0201 0202 0001 0001 0000 FF00 FFFF FFFE  ................
0006E16E FEFE FDFD FDFC FCFD FCFC FBFC FBFB FCFC  ................
0006E17E FCFC FCFC FCFD FDFD FDFE FEFE FEFE FE00  ................
0006E18E FF00 0000 0101 0203 0304 0404 0303 0303  ................
0006E19E 0303 0303 0304 0403 0303 0302 0202 0202  ................
0006E1AE 0101 0101 0000 0100 0001 00FF FF00 FFFF  ................
0006E1BE FFFE FFFF FFFF 00FF 0000 0000 0000 0101  ................
0006E1CE 0000 0100 0101 0000 0000 FEFE FFFF FFFF  ................
0006E1DE FFFE FEFE FEFE FFFE FEFE FDFE FDFD FEFD  ................
0006E1EE FCFE FEFD FDFD FDFE FCFC FDFD FEFE FDFE  ................
0006E1FE FEFE FEFF FF00 FF00 0001 0202 0304 0404  ................
0006E20E 0506 0606 0606 0606 0505 0606 0505 0505  ................
0006E21E 0404 0504 0303 0302 0302 0201 0000 FFFF  ................
0006E22E FFFE FEFE FFFE FEFE FEFE FFFE FEFF FFFE  ................
0006E23E FFFF 00FF FEFF FF00 0000 0101 0001 0102  ................
0006E24E 0202 0001 0100 0000 0001 0000 0100 0000  ................
0006E25E FF00 FFFE FFFE FEFE FDFE FEFD FEFF FFFE  ................
0006E26E FFFE FEFE FFFE FEFE FEFE FFFE FFFE FFFF  ................
0006E27E 00FF 0001 0001 0001 0101 0101 0101 0101  ................
>m
0006E28E 0101 0001 0001 0100 00FF FEFE FEFE FCFD  ................
0006E29E FDFC FDFD FDFD FDFD FEFD FDFD FDFE FEFD  ................
0006E2AE FEFE FEFF 0000 FF01 0001 0101 0101 0102  ................
0006E2BE 0102 0102 0201 0201 0101 0103 0202 0302  ................
0006E2CE 0403 0303 0303 0404 0304 0404 0303 0303  ................
0006E2DE 0203 0303 0202 0303 0202 0101 0000 0000  ................
0006E2EE FF00 0000 00FF FEFF FFFF 0000 0000 0100  ................
0006E2FE 0002 0202 0303 0303 0303 0404 0404 0403  ................
0006E30E 0403 0301 0000 00FF FFFE FEFE FDFC FCFC  ................
0006E31E FDFB FCFC FBFA FCFB FAFA FAFA FAFB FAFB  ................
0006E32E FAFA FAFB FBFC FBFB FCFC FCFD FDFE FF00  ................
0006E33E 0000 0101 0102 0203 0303 0404 0404 0404  ................
0006E34E 0304 0403 0303 0302 0202 0100 0100 00FF  ................
0006E35E FFFF FF00 FFFF FFFE FFFF FFFE FF00 0000  ................
0006E36E 0000 0202 0102 0302 0404 0505 0606 0706  ................
0006E37E 0507 0606 0605 0605 0504 0404 0403 0302  ................
0006E38E 0203 0200 0101 00FF FEFF FEFD FDFC FBFB  ................
0006E39E FAFA FAF9 F8F9 F8F7 F7F7 F7F6 F6F6 F6F6  ................
0006E3AE F6F6 F6F7 F6F6 F7F8 F9FA FAFA FCFC FCFD  ................
0006E3BE FEFF FF00 0102 0303 0304 0404 0505 0505  ................

>m
0006E3CE 0505 0606 0606 0606 0705 0505 0505 0504  ................
0006E3DE 0504 0304 0404 0404 0404 0404 0403 0304  ................
0006E3EE 0505 0404 0404 0504 0303 0304 0404 0304  ................
0006E3FE 0503 0303 0303 0302 0202 0201 0101 00FF  ................
0006E40E FF00 FEFE FEFE FDFD FDFC FCFC FCFC FBFB  ................
0006E41E FBFB FBFA FAFA FAFA FAFA FAFA FAFB FAFB  ................
0006E42E FAFB FBFB FCFD FDFE FFFF FF00 0101 0202  ................
0006E43E 0203 0302 0303 0303 0202 0201 0101 0101  ................
0006E44E 0101 0000 0100 FFFF FFFE FEFF FEFE FEFE  ................
0006E45E FEFE FEFE FEFE FFFF FFFF FEFF FFFE FFFE  ................
0006E46E FF00 FF00 0000 0000 0101 0101 0101 0102  ................
0006E47E 0202 0203 0303 0303 0404 0404 0403 0304  ................
0006E48E 0304 0304 0303 0303 0202 0201 0101 0001  ................
0006E49E 0000 0100 0001 0101 0101 0101 0202 0101  ................
0006E4AE 0201 0201 0201 0101 0101 0101 0101 0202  ................
0006E4BE 0202 0202 0102 0101 0101 0000 0101 0000  ................
0006E4CE 0000 0000 FFFF 00FF FFFF FFFE FEFD FDFD  ................
0006E4DE FDFD FDFD FCFC FCFB FBFB FBFB FBFC FBFA  ................
0006E4EE FBFB FBFB FBFB FCFC FCFC FDFD FDFE FEFD  ................
0006E4FE FEFE FEFE FEFE FEFE FDFD FEFE FEFD FEFE  ................
>m
0006E50E FEFE FEFE FFFE FFFF FEFF FF00 0000 0101  ................
0006E51E 0203 0303 0404 0505 0606 0707 0808 0808  ................
0006E52E 0909 0809 0808 0908 0807 0707 0706 0505  ................
0006E53E 0505 0504 0403 0303 0202 0201 0101 0000  ................
0006E54E FF00 FFFF FFFE FFFE FDFE FEFD FEFD FDFD  ................
0006E55E FDFD FDFE FDFE FDFE FEFE FEFE FEFE FEFE  ................
0006E56E FEFE FEFE FEFE FEFE FEFE FEFE FEFE FDFD  ................
0006E57E FDFD FCFC FCFC FCFB FBFC FBFB FBFB FBFC  ................
0006E58E FCFC FCFC FDFC FCFD FDFF FEFE FFFF FF00  ................
0006E59E 0100 0101 0101 0202 0202 0303 0203 0304  ................
0006E5AE 0404 0404 0405 0404 0404 0404 0504 0404  ................
0006E5BE 0404 0504 0404 0404 0303 0303 0302 0302  ................
0006E5CE 0201 0201 0101 0000 0000 FFFF FFFF FFFE  ................
0006E5DE FEFD FEFE FEFD FDFD FDFD FEFD FEFE FEFE  ................
0006E5EE FEFE FEFE FEFE FEFF FFFF FFFF 00FF FF00  ................
0006E5FE FF00 00FF FF00 FFFF FF00 0000 0000 0000  ................
0006E60E 0000 0000 0101 0001 0101 0101 0001 0000  ................
0006E61E 0100 0000 FF00 FF00 0000 00FF 0000 0001  ................
0006E62E 0000 0102 0201 0202 0202 0202 0201 0202  ................
0006E63E 0101 0101 0000 0000 FF00 FFFF FFFF FFFF  ................

>m
0006E64E FEFF FEFF FFFF FEFF FFFF 0000 0000 FFFF  ................
0006E65E FFFF FF00 FF00 0000 FFFF 0000 0000 0001  ................
0006E66E 0000 0100 00FF 0000 0000 0000 0100 0001  ................
0006E67E 0001 0101 0100 0101 0101 0101 0000 0100  ................
0006E68E 0101 0101 0102 0102 0202 0202 0202 0202  ................
0006E69E 0202 0101 0101 0001 0101 0000 0100 0000  ................
0006E6AE 0000 0100 FF00 00FF FFFF FEFF FFFF FFFF  ................
0006E6BE FFFF FEFE FFFF FEFE FEFE FFFF FFFF FFFF  ................
0006E6CE 00FF FF00 0000 00FF 0000 FFFF FFFE FFFE  ................
0006E6DE FEFF FEFE FEFE FDFD FCFD FDFD FDFD FDFD  ................
0006E6EE FEFD FEFE FFFE FEFF FF00 0000 0101 0202  ................
0006E6FE 0303 0303 0303 0404 0404 0404 0505 0405  ................
0006E70E 0504 0404 0404 0303 0202 0303 0302 0202  ................
0006E71E 0101 0000 FF00 FFFF FFFE FEFE FEFD FEFE  ................
0006E72E FEFE FDFD FDFD FDFD FDFE FEFE FEFE FFFF  ................
0006E73E FF00 FF00 0000 0100 0101 0100 0101 0001  ................
0006E74E 0101 0201 0202 0202 0101 0101 0000 0000  ................
0006E75E 0000 0000 0100 0000 0000 0000 00FF 00FF  ................
0006E76E 0000 0000 0000 0101 0101 0102 0101 0202  ................
0006E77E 0201 0101 0101 0101 0101 0101 0100 0101  ................
>m
0006E78E 0000 0000 0000 0000 0000 0000 00FF 00FF  ................
0006E79E FFFE FEFE FEFE FEFD FEFE FEFE FEFE FEFE  ................
0006E7AE FEFE FEFE FEFF FFFF FFFF FFFF FFFF 0000  ................
0006E7BE 0000 0000 0000 0000 0000 0100 0000 0000  ................
0006E7CE 0000 0000 0000 0000 0000 0000 0001 0000  ................
0006E7DE 0000 0000 0000 0000 0000 0000 0000 0000  ................
0006E7EE 0000 0000 0000 0000 0000 00FE 



; Sample 04
sample_file_04
                ; --------------------- Sound Sample 4 -------------------
                ; Start Address: $0006E7FA
                ; Name:          HITSNARE-C2
>m 0006E7FA
0006E7FA 464F 524D 0000 14B0 3853 5658 5648 4452  FORM....8SVXVHDR
0006E80A 0000 0014 0000 1450 0000 0000 0000 0020  .......P.......
0006E81A 20AB 0100 0001 0000 4E41 4D45 0000 0014   .......NAME....
0006E82A 4849 5453 4E41 5245 2D43 3200 0000 0000  HITSNARE-C2.....
0006E83A 0000 0000 414E 4E4F 0000 0014 4175 6469  ....ANNO....Audi
0006E84A 6F20 4D61 7374 6572 2049 4900 0000 0000  o Master II.....
0006E85A 424F 4459 0000 1450 0000 00FF FFFF F9F4  BODY...P........
0006E86A E7DE E622 6576 736F 6D69 DD27 62EE 8180  ..."evsomi.'b...
0006E87A EDB0 8081 8386 898D DDC4 9395 989B A0AB  ................
0006E88A 1A62 667F 7F7F 7F7F 7C7A 7774 716E 6C69  .bf.....|zwtqnli
0006E89A 6764 6259 0C83 A983 E89E 8080 8181 8284  gdbY............
0006E8AA 8917 CF8E 8FA8 586E 6525 687B 7774 716F  ......Xne%h{wtqo
0006E8BA 6C69 6765 354A 5F5C 5138 A280 808A 8190  lige5J_\Q8......
0006E8CA 8181 81A2 9490 9089 8C8F 9295 9AB1 A108  ................
0006E8DA 1B22 4002 6A72 767F 7F7E 7B79 7673 67FA  ."@.jrv..~{yvsg.
0006E8EA 4065 665E F490 8381 8181 8284 898B 90A7  @ef^............
0006E8FA DBE5 68F9 9897 BCF7 101C 0C42 3176 7F3D  ..h........B1v.=
0006E90A D34B 7E7B 7977 7471 6E6C 6940 4B19 9180  .K~{ywtqnli@K...
0006E91A 918C DAAD 94A1 8586 898D 8F93 9699 9CAD  ................
0006E92A C1E0 B6B6 D149 7F7F 7F7C 7F7F 7F7F 7D7A  .....I...|....}z

>m
0006E93A 7774 6956 0CCE 0819 D382 8082 8B8E 908E  wtiV............
0006E94A 92A2 B0CC A39E B0A3 A4A7 B3CC 1756 7F7F  .............V..
0006E95A 7F7F 7F7F 7F7F 7E7C 7976 7461 0BF9 F7EB  ......~|yvta....
0006E96A DEB4 F714 DB9A B396 888B 8D90 9497 9AC0  ................
0006E97A D62A CABE D004 1869 7F7F 7F7F 7F7F 7C79  .*.....i......|y
0006E98A 766F 6757 4C46 3C28 08C5 9694 B591 8283  vogWLF<(........
0006E99A 8587 8B8E 9B9C A0A1 B8A8 D4CE FD40 6E7A  .............@nz
0006E9AA 777B 7F7F 56FE 6174 516A 716F 6241 542F  w{..V.atQjqobAT/
0006E9BA 512F 2645 2603 C4E4 8C80 8181 8282 8486  Q/&E&...........
0006E9CA 9190 AA99 98A4 B8E8 2C1F 2D59 5966 6B75  ........,.-YYfku
0006E9DA 7975 726F 6A5E 4951 3310 28E2 A7B3 BCB7  yuroj^IQ3.(.....
0006E9EA 948F C8E3 D2F5 CC96 898C 9294 A5B6 F4E5  ................
0006E9FA F61D 2F5B 563F 5268 4834 656E 6566 5F5F  ../[V?RhH4enef__
0006EA0A 4F3D 2320 161F 2F08 E8E3 00FE D7CA AA87  O=# ../.........
0006EA1A 8185 8487 91B4 C7A8 DEED D30C 324B 3344  ............2K3D
0006EA2A 6D72 6450 540B FF02 2F13 162C 3D45 121E  mrdPT.../..,=E..
0006EA3A D984 828F C0BA CFEE F4F9 DCC0 C8B5 DAF2  ................
0006EA4A 2302 0EF4 E1F7 CAD4 CACB D7E8 DB1B 2A16  #.............*.
0006EA5A 2F3D 4A5D 7268 6C6F 6F6F 605C 2FFF C6C3  /=J]rhlooo`\/...
0006EA6A 9F88 939B A4DD F000 EEEB BA94 9492 9BB5  ................
>m
0006EA7A B506 0EF1 1804 0602 313B 6B4E 616B 463D  ........1;kNakF=
0006EA8A 484E 3017 0C15 220A 203C 1CFE D7E3 DEF7  HN0...". <......
0006EA9A E3E3 FFF0 CDAE 98A0 9994 8C90 909B C0EF  ................
0006EAAA 1846 4E26 1D2C 0E41 3B40 6E6D 6857 695F  .FN&.,.A;@nmhWi_
0006EABA 551E 3245 4E27 0DF6 C8D3 EFCB B98E 8AA4  U.2EN'..........
0006EACA A5A1 B1A6 C9EA EAD5 C7F6 0210 1231 4718  .............1G.
0006EADA 2C16 2C42 583A 0F42 5351 5A39 3322 0FF7  ,.,BX:.BSQZ93"..
0006EAEA CFA9 B8BA B1D4 CDD1 CEBC D8E9 DDF5 F100  ................
0006EAFA F3D2 CBE1 EAF0 1C2B 12FA 0815 310C 0D0F  .......+....1...
0006EB0A 3120 2930 0B14 1E27 2A07 0A0C 211D 140E  1 )0...'*...!...
0006EB1A FDE2 DDF7 EA0B F0FB 0CF0 DED3 BAC9 DEDE  ................
0006EB2A DFE2 F5FE 0D15 3D23 1604 F6F0 050C FA07  ......=#........
0006EB3A 3328 3723 2E20 1940 414E 331E 100B EBCF  3(7#. .@AN3.....
0006EB4A E1DC ADA7 C0B3 A9AA CCC6 E1CD E7F8 F6E9  ................
0006EB5A F115 3D32 342A 3237 472B 2734 2E23 2121  ..=24*27G+'4.#!!
0006EB6A 1B18 0801 F2E6 FCFE EBF0 DEEA E9DE BAC4  ................
0006EB7A EBEB ECF1 01F9 E2D4 D4EC F8FE 0C2A 3C30  .............*<0
0006EB8A 112A 313F 4140 2C24 3D2B 2E2F 4912 F1F3  .*1?A@,$=+./I...
0006EB9A E8CD D4CC BDA4 919D D2DD B7BD C8CD E6EC  ................
0006EBAA 03F7 EA26 342F 3538 3F53 4647 4C3E 2D1B  ...&4/58?SFGL>-.

>m
0006EBBA FDE9 FEED E2D3 E0FA E9AA B1C1 B5DD 0200  ................
0006EBCA EAF9 1711 1315 FDF3 F902 0005 2C39 2F2C  ............,9/,
0006EBDA 2A24 252E 181B 0CFD EE0C F4EA EAF6 CDE6  *$%.............
0006EBEA F2EA E5E5 F2E4 E7C2 CACA D2D1 EE09 1722  ..............."
0006EBFA 3721 2C18 1A0A F80F 1F25 182F 3644 3C2C  7!,......%./6D<,
0006EC0A 12F4 ECD4 CBF1 DCC4 D4EC E9EA E4CF E9E3  ................
0006EC1A E8DC EE03 EAE3 141C 2723 3523 1637 322A  ........'#5#.72*
0006EC2A 2416 0C06 EEF3 F4F2 F611 0904 ED01 F1E6  $...............
0006EC3A F10D 10FD EBE8 F00B 1811 1C0A 0513 11E6  ................
0006EC4A E2EE 07FA F50A 02DD EFF6 FEEE F6EA E8F9  ................
0006EC5A 030C 1936 2011 1106 0E01 1307 F7F4 ECE5  ...6 ...........
0006EC6A F5E9 E7F7 0D07 060C FD10 1518 0FF2 F0ED  ................
0006EC7A E2DF F102 EFF8 0006 EBE7 0507 0612 1A24  ...............$
0006EC8A 0F06 1F1B 161E 1609 081A 2219 0C13 1608  ..........".....
0006EC9A FDEE D9C3 D5D0 D3CB C2D5 D1D1 DAEB 1101  ................
0006ECAA F802 2226 2428 2223 281E 2829 3740 3725  .."&$("#(.()7@7%
0006ECBA 05F9 F1E3 D0D6 DCDF DEEC ECD2 D4E4 E9E8  ................
0006ECCA E2DB D8EC 1325 2624 1C1C 1A11 F8F3 FFF8  .....%&$........
0006ECDA FD06 05FE FAFF 0504 03FE 0A14 1821 2717  .............!'.
0006ECEA 0806 F9F8 E1ED F5F8 FEF7 F7E7 E1DA DBD6  ................
>m
0006ECFA D2D7 EEFD F8FE 0C0C 1D24 2524 1817 1F29  .........$%$...)
0006ED0A 2B11 1A14 02F0 E0DC E606 1009 E9E7 EAE5  +...............
0006ED1A E3E8 D7DC E4EA F802 03F9 0802 E8EC 040E  ................
0006ED2A 0701 0E1A 2019 1C1B 1C1C 1F27 1F1C 1A0E  .... ......'....
0006ED3A 0C06 01FB ECEE EFF4 F9EE E7E2 E7E9 DED7  ................
0006ED4A DDE0 DDEA FC0F 07F5 0214 1617 2A3B 3634  ............*;64
0006ED5A 2C2B 2328 1C0C FCE8 EEE8 EAED E9D4 CAD0  ,+#(............
0006ED6A E1DA CED6 E1E0 DCEC FB03 0213 1B1B 1513  ................
0006ED7A 221B 140C 171E 261D 1A11 0F08 FEFF 0906  ".....&.........
0006ED8A FDF4 F7F9 F8F8 F1ED EDEA E5E5 E7EB F4F5  ................
0006ED9A F6FE F6E9 EFFA 0108 1B1D 0E0F 1820 171A  ............. ..
0006EDAA 242C 2127 2417 17FE F8F2 E6E0 DCE9 E3DE  $,!'$...........
0006EDBA DDDF F2ED EBE9 FE01 F4EB F405 01F7 F505  ................
0006EDCA 1012 0B0E 0C12 1517 1E17 141E 241E 170F  ............$...
0006EDDA 0D04 02FB F6F2 F5EB E7EC F402 05F8 F4EA  ................
0006EDEA F0E8 E8E8 D8D2 D4E5 F002 030C 171D 1F1D  ................
0006EDFA 292F 3124 252D 2416 070A 0D07 010C FFEF  )/1$%-$.........
0006EE0A E1E2 DEE1 DCD4 CFC8 CCD9 E9EC F1FD 0A0A  ................
0006EE1A 0C0E 0C0D 1612 1A2A 2E20 0F13 1214 0F0F  .......*. ......
0006EE2A 0AFE 050A FFF9 FCFE FAF3 EFFB 01F6 F5F3  ................

>m
0006EE3A F3F4 F1EB E6E7 F2F8 020A 150D 0406 00FB  ................
0006EE4A FC02 02FB FDFF 0607 0801 FDFA FD07 0B10  ................
0006EE5A 1012 0E0D 0807 0100 FFFC ECEE F8FF FEF3  ................
0006EE6A F4F8 FEF7 F1F2 F8F6 FBF7 F7FB 0404 0E08  ................
0006EE7A 0407 0C08 00FF FDFF 0102 0108 1417 1D18  ................
0006EE8A 150E 0D10 06F9 E8E4 F2F8 EDE9 F3F5 F2E5  ................
0006EE9A F7F9 F6F5 F2F6 FD02 000E 0E05 0709 0B08  ................
0006EEAA 0C0E 0D0E 1307 0A04 0507 FE01 FBFD FE08  ................
0006EEBA 00FE F6F9 FBF4 F4FA FDFC F4F8 0203 03FE  ................
0006EECA 02F8 F2EE F6FC FDFF 060D FF03 04FF 070B  ................
0006EEDA FDFF 050C 09FF 0708 FFF8 FE02 000C 1005  ................
0006EEEA F4F2 F3F9 FAEB EFEE EEEF EDF5 EEF7 FCF9  ................
0006EEFA FA0A 1215 121C 1C1C 1913 0802 03FE F9FB  ................
0006EF0A 0206 0401 0506 FAF1 F6F7 F3F0 F4FB F9FF  ................
0006EF1A FDF9 F9FE FFF9 FF02 03FF 0004 04FF 0009  ................
0006EF2A 0A02 0004 0603 060F 170D 0709 0E14 0C02  ................
0006EF3A FF00 FCF8 F1F3 F3EC F0F6 F6EE EAED FBF5  ................
0006EF4A F7FB FFFF 0009 0704 060F 0F0C 0907 121C  ................
0006EF5A 1D1B 180E 0E0F 08FE FBFA F9F2 F0EC E5E1  ................
0006EF6A E6EA EFF6 EFF0 EAF0 F301 04FF 0305 FDFC  ................
>m
0006EF7A FE05 131C 211C 1D1D 2224 2520 190E 0401  ....!..."$% ....
0006EF8A FAF6 F8F0 F2F4 F2F0 E5E5 EAE9 DFE1 E8E8  ................
0006EF9A E8E7 ECF3 0002 0203 040D 171D 2022 2626  ............ "&&
0006EFAA 2222 201E 1E16 0D04 F8FB F7EB EEE8 EAE9  "" .............
0006EFBA DFDF E5E8 E6EA F2F1 F6F5 F6F8 F9FB 0205  ................
0006EFCA 0511 1217 1918 1316 1314 180F 0903 050D  ................
0006EFDA 0F02 F6FC FFFF FCF3 F6F5 F3EF ECEB F1F5  ................
0006EFEA F5F3 EDF0 FA02 0200 01FB FBFF 0203 0708  ................
0006EFFA 0E0A 1010 0905 070A 080A 0B06 0500 0404  ................
0006F00A 02FE FAF9 F3F1 F6F2 F2EE F2F7 F8F9 FCFC  ................
0006F01A FFFE FF02 0506 0803 090E 0E0B 0508 0A07  ................
0006F02A 1014 130C 0704 0903 0503 FF01 FDFD F5F4  ................
0006F03A F4F2 F0EE ECED F1ED ECF0 F1F2 FBF8 F9FB  ................
0006F04A FD03 0000 060B 1010 0F15 151A 1717 100B  ................
0006F05A 0604 0202 FEFD F8F7 F2F3 F4EE F1F1 F6FC  ................
0006F06A F8F7 F902 0505 0505 0203 0203 0A05 0807  ................
0006F07A FAFD FF03 02FF 0007 0304 0102 0304 0707  ................
0006F08A 0A0D 09FE 00FF 0606 F7F2 EFF2 F6F5 F6FA  ................
0006F09A FEF9 FDF8 F9FA FC05 0504 0708 0400 0103  ................
0006F0AA 0405 0503 0405 0B0A 03FC F6F2 F7FD 0105  ................
>

>m
0006F0BA FEFD FBF9 FAFA 0105 0A05 0604 0208 00FE  ................
0006F0CA FFFB F8F8 F6FA FAFA 00FE 01FF 0204 0403  ................
0006F0DA 0404 020B 0B06 0205 0601 FCFC 0301 0304  ................
0006F0EA 0503 FEFE FAF5 F4FA 0205 FD00 00FD FFF8  ................
0006F0FA FE01 0803 FCFB FBFD FFF9 FAFD F7FA FF05  ................
0006F10A 0D0A 0B10 0C0B 080A 0D0F 0805 0502 03FD  ................
0006F11A FCFD FAF4 F1F1 F0F0 EFF3 F5F3 F2FA FFFF  ................
0006F12A FF04 0A0F 1010 120C 0D0E 0C09 0908 0B05  ................
0006F13A FCFB F7F9 F9F8 EFF1 F5F9 FCFC FF05 FEFC  ................
0006F14A F9F8 FE04 0200 0406 0607 0507 03FE 0105  ................
0006F15A 0604 0201 00FE FC00 FF00 FFFE 0105 0202  ................
0006F16A 01FB FBFC FFFB F7F6 FAFE FEFD 0000 0404  ................
0006F17A 00FB FAFC 0809 0D10 120D 0A04 0106 02FD  ................
0006F18A FBF9 F8F6 F4F5 F2F3 FBF9 FBFF FEFD FF00  ................
0006F19A FC01 0003 0504 0609 0506 05FE FCFD FAFF  ................
0006F1AA 01FC FC01 0406 0706 0B0C 0501 F8F8 FC00  ................
0006F1BA FFFD FAFA FBFB FAF8 FAFB FCFB FAFD 0201  ................
0006F1CA 0100 0103 0103 0505 0A0D 0E0C 0804 0301  ................
0006F1DA 00FD FD00 FBFC F9F5 F7F9 F0F2 F9FC FEFF  ................
0006F1EA 0407 0D0A 0602 0100 0306 0805 0306 0802  ................
>m
0006F1FA FFFE 0102 FD00 FDFA F9FB 0200 FDFA FFFC  ................
0006F20A FBFD 0406 0A05 01FC FDFD FDFD FAFF FF02  ................
0006F21A 00FF FDFC FCFC FF00 0106 0B0C 0D08 0202  ................
0006F22A FFFE F9FC FCFB FC02 0503 0201 0004 0507  ................
0006F23A 0300 0002 0303 0403 0302 FEFF 0201 0304  ................
0006F24A 0201 FDF9 FDFE FAF7 F8FF 01FE FB00 0301  ................
0006F25A 01FE 0205 0809 0805 01FF FFFF FCFA FBF9  ................
0006F26A FAFA FEFF 00FE FD05 0402 FFFF 0205 0400  ................
0006F27A 01FC FEFA FB00 00FC 0104 02FF FEFA F9FC  ................
0006F28A FF00 0100 0301 0102 0609 0B07 0407 0506  ................
0006F29A 0504 0101 0003 01FD FBF7 FAF8 F2F6 F5FB  ................
0006F2AA FE02 FDFB FDFD FBFC FFFF 0203 0402 0405  ................
0006F2BA 0708 090C 0B08 0402 0605 0504 0403 0201  ................
0006F2CA FF00 FBFE FDFA F7F9 F5F6 F5F2 F2F5 F7F8  ................
0006F2DA FBF6 F6FB FCFD FD01 060B 0D0F 0E0D 110B  ................
0006F2EA 0E09 0806 0409 0805 FEFE FDF9 F6F4 F1F2  ................
0006F2FA F3F7 FAF6 F9FB FDFB FAFD 0102 0005 0807  ................
0006F30A 0608 0B0C 0A09 0D0A 090A 0A0B 0A07 0907  ................
0006F31A 0705 00FB F9F7 F5F3 F8F8 F4F3 F3F3 F3F3  ................
0006F32A F4F2 EEF9 FAFD FCFD 0001 080B 0F0F 1114  ................

>m
0006F33A 0E0D 0D10 0E0B 0A07 0400 FDF8 F5F5 F4F0  ................
0006F34A F0EF EDEB ECF1 F9F8 FAFC FC02 0202 0607  ................
0006F35A 0607 0A0A 0E0F 0F11 0E0B 0907 0405 0408  ................
0006F36A 0400 00FC FBFB FCF7 F7F8 FAF7 F9F9 F9F9  ................
0006F37A F6F6 F9F9 F9FE FF02 0104 0909 0A0A 0A0A  ................
0006F38A 0A0B 0C0C 0703 01FE FEFF FDFC FBFA F8F7  ................
0006F39A F6FA F9F6 F5FA FAFA FBFD 00FB FCFD 0100  ................
0006F3AA 0200 0608 090B 0D0B 0908 02FF FBFC FEFE  ................
0006F3BA FFFF 0305 0305 00FE FD00 FFFA FBFF FBF8  ................
0006F3CA F8F9 F8F9 FBFB FAFC FEFD FAFE 0304 0608  ................
0006F3DA 0C0D 080A 0A07 0505 0504 0301 0100 0102  ................
0006F3EA 00FE FEFC F9F7 F7F4 F5F2 F2F9 FBFC FF00  ................
0006F3FA FEFF FF02 0505 0205 0808 0606 070B 0C0D  ................
0006F40A 0B0A 090C 0A04 01FE FAFB F8F7 F6F5 F6F5  ................
0006F41A F4F4 F2F4 F6F8 F7FA FE01 0301 0304 0709  ................
0006F42A 0B07 0809 0E0E 090B 0B0A 0706 0303 00FF  ................
0006F43A FDFA F7F6 F9F4 F4F6 F7F9 F7F8 FCFA F9FC  ................
0006F44A FDFE 00FF FEFE FF01 0507 0C0D 0C09 080A  ................
0006F45A 0905 0606 0503 0400 FFFE FEFD FAFC FBFB  ................
0006F46A F9F7 F7FC FDFC FAFA FEFD FDFC FBFE FE02  ................
>m
0006F47A 0607 0408 0909 0807 0805 0506 0503 0201  ................
0006F48A FCFB FD00 0000 FBF9 FDFC FAF9 F4F6 F7FC  ................
0006F49A FEFB FE02 FEFD FEFE 0203 0509 0708 0908  ................
0006F4AA 0703 0504 0302 00FE FF02 0604 FF01 03FE  ................
0006F4BA FEFE FFFE FCFB F9F6 F6F7 F8FB FBFE 0002  ................
0006F4CA FF01 0403 0200 FFFE 0006 0304 0304 0404  ................
0006F4DA 0808 0404 0607 0604 0604 FFFE 0000 FBFB  ................
0006F4EA FCFE FCFF FFFE FAF9 FAFB FEFD FCFE FEFE  ................
0006F4FA FDFB FAFE 0102 01FF 0306 0605 0201 0403  ................
0006F50A FF00 0202 0304 0200 FDFE 01FF FDF9 FBFC  ................
0006F51A FDFA F9FB F9FB F9FA FBFF 0004 0607 0909  ................
0006F52A 080B 0A06 0605 0503 0305 03FE FBFD FCFD  ................
0006F53A FEFD FDFD FDFF FEF9 FBFC FAFD FDFF FEFE  ................
0006F54A 0103 0305 0607 0604 0401 0302 00FE FA00  ................
0006F55A 0102 FF00 0203 0300 FFFA FCFF FCFC FBFB  ................
0006F56A FBF9 FAFB FCFE FFFE FE00 0402 0102 0304  ................
0006F57A 0303 0301 0006 0504 0506 0605 0203 00FF  ................
0006F58A FFFE FD00 FDFC FCFC FDFA FBFC 0000 FDFF  ................
0006F59A 0303 0001 0205 0403 0101 0202 0000 0201  ................
0006F5AA 0302 0304 01FF FEFD FCFB FCFD FBFC FAFD  ................

>m
0006F5BA FCFC FDFC FFFF 0001 01FF 0105 0203 0201  ................
0006F5CA 0403 0303 0300 0300 FF03 0000 0000 FFFE  ................
0006F5DA FEFC FBF9 F8FB FDFF 0001 0201 0504 0403  ................
0006F5EA 0203 0405 0305 0603 0403 0100 01FC FEFE  ................
0006F5FA FFFF FEFE FCFC FAFD FDFE FEFF 0104 0404  ................
0006F60A 0505 0302 0003 0606 0300 FEFD FEFE 00FF  ................
0006F61A FDFE FEFF FEFC FBFE FEFD 0000 0203 0201  ................
0006F62A 0000 FFFE FF00 0200 0204 0001 FF01 0001  ................
0006F63A FEFE FFFF FEFF 0101 0201 0101 FFFD FD00  ................
0006F64A 0100 0000 FF01 0201 0202 0302 0101 0200  ................
0006F65A 0002 01FF 0000 0202 00FE 00FF FEFD FCFD  ................
0006F66A FFFE FF00 0001 00FF FE00 FF01 0001 0200  ................
0006F67A FE00 0306 0200 FDFD FEFE FEFE FCFF 00FF  ................
0006F68A FF00 0000 0303 0501 0002 0102 0102 0101  ................
0006F69A 0000 0200 0201 00FE FF00 FFFD F9F8 FCFE  ................
0006F6AA FEFF 0102 0203 0101 0101 0101 0103 0304  ................
0006F6BA FFFF FEFE FDFD FDFE 0000 0300 0002 0202  ................
0006F6CA 00FF FFFE FEFF 00FF FF01 0001 FFFE FFFE  ................
0006F6DA FD00 0101 0000 0203 0102 0502 0403 0302  ................
0006F6EA 0000 FEFE FC00 00FD FCFE FEFD FFFF FFFC  ................
>m
0006F6FA FE01 0201 0200 FFFF 0101 0203 0303 0606  ................
0006F70A 0401 0000 0000 0002 0300 FFFF FFFD FCFD  ................
0006F71A FCFC FCFE FF00 0001 0102 0303 0302 FF01  ................
0006F72A 0100 FFFF FFFF FFFF 0000 FFFE FE00 FF00  ................
0006F73A 0001 FFFF 0000 0203 0202 0302 00FF FFFF  ................
0006F74A 0102 0203 0304 00FD 0000 0102 0401 0101  ................
0006F75A 0202 00FE FEFE FDFC FCFE FEFD FE00 FF00  ................
0006F76A 0100 0204 0304 0303 0302 0607 0604 0301  ................
0006F77A 01FE FCFC FCFA F9F9 FBFE FCFD FBFB FDFE  ................
0006F78A FDFC FDFD FF01 0204 0402 0307 0503 0204  ................
0006F79A 0404 0302 0503 0402 FDFC FBFE FEFD FBFC  ................
0006F7AA FDFD FDFC FDFC FCFD FEFE 0000 0001 0202  ................
0006F7BA 0302 0003 0201 0001 0304 0303 0301 0101  ................
0006F7CA FFFF FFFD FE01 0201 0000 00FE FCFB FCFD  ................
0006F7DA FCFE FEFF FEFF 0103 0102 0403 0301 0201  ................
0006F7EA 0001 0102 0303 0301 0001 00FD FEFE FFFE  ................
0006F7FA FCFE FE00 FFFF 00FF FDFE FDFC FBFD FDFF  ................
0006F80A 0003 0402 0201 00FF 0102 0304 0303 0203  ................
0006F81A 0303 0201 0101 0203 0101 0000 FFFE FDFB  ................
0006F82A FBFE FDFE FCFC FDFE FF00 FFFF FFFF 0000  ................

>m
0006F83A FEFF 0101 0203 0403 0505 0703 0201 0202  ................
0006F84A 00FE 0001 01FF FEFF FEFC FBFB FCFE FEFC  ................
0006F85A FCFE FF00 0002 0101 FF00 00FF FF01 0301  ................
0006F86A 0204 0201 0102 0001 0302 0101 0201 00FF  ................
0006F87A 0001 FF00 00FF FEFD FEFE FE01 0203 0200  ................
0006F88A 0000 0101 0101 0100 0101 01FF FF00 0202  ................
0006F89A 0101 00FF 0000 00FE 0002 0201 FF00 01FF  ................
0006F8AA FFFE FEFE 0100 00FE FE00 FF00 0001 0202  ................
0006F8BA 0100 FF00 0100 FFFE FFFF FEFD FEFF 0001  ................
0006F8CA 0102 0100 FFFF 0001 0303 0303 0504 0303  ................
0006F8DA 0201 0000 0000 FFFF 01FF FEFD FCFD FCFD  ................
0006F8EA FDFE 0101 0000 0001 0000 0100 FE00 0304  ................
0006F8FA 0403 0301 0102 0202 0202 0100 FEFE FEFE  ................
0006F90A FEFE FCFC FEFD FBFC FDFD FDFF FFFF FF00  ................
0006F91A 0101 0302 0204 0202 0302 0203 0403 0403  ................
0006F92A 0201 01FF FEFF 00FD FCFD FDFD FCFC FBFD  ................
0006F93A FEFF 0102 0201 0201 0202 0405 0404 0403  ................
0006F94A 0403 0200 00FF FEFD FDFE FCFC FBFA FCFD  ................
0006F95A FDFD FEFE FF00 0001 0101 0202 0102 0203  ................
0006F96A 0302 0303 0100 FFFF 0000 0001 0202 0001  ................
>m
0006F97A 00FE FDFE 00FF FEFE FFFE FEFE FE00 01FF  ................
0006F98A FFFF FF00 0203 0303 0102 0504 0200 0202  ................
0006F99A 0003 0201 FFFF FFFF FFFE FEFE FBFA FBFE  ................
0006F9AA FEFD FE00 0001 0200 0102 0202 0302 0303  ................
0006F9BA 0202 0200 0000 FF00 0000 00FF FFFF 0000  ................
0006F9CA FE00 00FF FFFF 00FF 0102 0100 FF00 0001  ................
0006F9DA 0000 0000 00FF FFFF 0000 0100 0102 0101  ................
0006F9EA 0302 0203 0200 FFFE FEFF FF00 FEFD FFFF  ................
0006F9FA FE00 FFFF 00FF 0001 0100 0101 0101 0202  ................
0006FA0A 0201 0000 0001 00FD FEFE FF01 00FF FEFD  ................
0006FA1A FEFF 0101 0202 0202 0202 00FF 0001 0000  ................
0006FA2A 01FF FEFF FFFE FEFE FFFE FF01 0101 0101  ................
0006FA3A 0101 0202 0304 0301 0101 0202 0100 00FF  ................
0006FA4A FEFF FEFE FEFE FEFD FDFE FEFE FDFF 0000  ................
0006FA5A 0101 FFFF FF01 0100 0000 0000 0203 0101  ................
0006FA6A 0202 0101 0102 0100 0101 0100 FEFE FEFD  ................
0006FA7A FEFF FEFC FDFF FE00 0101 0000 0102 0305  ................
0006FA8A 0505 0302 0404 0202 0100 0001 00FE FDFD  ................
0006FA9A FCFB FBFA FAFB FDFE FF00 FFFF 0101 0203  ................
0006FAAA 0303 0404 0506 0504 0302 0201 00FF FFFF  ................

>m
0006FABA FDFC FCFD FDFC FBFB FCFD FEFD FDFD FDFE  ................
0006FACA 0002 0202 0303 0406 0504 0404 0200 FF00  ................
0006FADA 0001 0201 0101 01FF FDFE FDFD FDFE FEFF  ................
0006FAEA FEFE FEFD FDFD FFFF 0002 0202 0201 0203  ................
0006FAFA 0301 0202 0102 0201 0101 0000 0000 FF00  ................
0006FB0A FFFE FF00 00FE FDFC FCFC FC00 0101 0200  ................
0006FB1A 0101 0101 0101 0101 0102 0202 0100 FFFF  ................
0006FB2A 0000 FE00 0001 0100 FFFF FFFF 0000 FFFF  ................
0006FB3A 0000 0101 0202 00FF FF00 0101 0101 0201  ................
0006FB4A 00FF FEFE FE00 0001 0001 0100 00FF 0001  ................
0006FB5A 0000 FFFF FEFF 0000 0001 0101 0101 0100  ................
0006FB6A 0101 0101 0202 0201 0302 0101 0101 0000  ................
0006FB7A FFFE FCFC FCFE FEFE FEFF FEFD FFFF 0100  ................
0006FB8A 0103 0303 0203 0302 0303 0202 0301 0101  ................
0006FB9A 0000 00FF FEFE FDFC FDFD FDFE FEFE FEFF  ................
0006FBAA 0100 00FF FF00 0101 0202 0101 0202 0201  ................
0006FBBA 0102 0203 0202 0301 0201 0101 01FE FEFD  ................
0006FBCA FCFD FDFD FDFD FEFE FF00 FFFF FFFF 0000  ................
0006FBDA 0000 0304 0404 0302 0202 0203 0201 0000  ................
0006FBEA 0101 0100 0000 0100 FF00 FEFC FDFE FEFF  ................
>m
0006FBFA FF00 FF00 00FF FEFE FEFD FF00 0001 0201  ................
0006FC0A 0100 0101 0202 0302 0202 0101 0101 0101  ................
0006FC1A 0000 00FF FEFE FDFD FEFF FFFE FEFE FDFE  ................
0006FC2A FEFF FF00 FFFF 0102 0303 0303 0304 0303  ................
0006FC3A 0201 0000 0000 0000 0000 00FF FEFE FFFF  ................
0006FC4A FEFF FEFD FDFD FCFC FEFE FF00 FF00 0101  ................
0006FC5A 0102 0202 0302 0101 0103 0302 0202 0101  ................
0006FC6A 0000 FFFE FEFE FEFE FFFF FEFF FEFD FEFE  ................
0006FC7A FFFF 0000 0102 0202 0202 0302 00FF FF00  ................
0006FC8A 00FF FF00 0000 0100 0000 0100 0000 0000  ................
0006FC9A 0000 0000 0000 0000 0000 0000 0000 0000  ................
0006FCAA 0000 0000 0000 0000 



; Sample 05
sample_file_05
                ; --------------------- Sound Sample 5 -------------------
                ; Start Address: $0006FCB2
                ; Name:          CRUNCHBASS-A2
>m 0006FCB2
0006FCB2 464F 524D 0000 0BF2 3853 5658 5648 4452  FORM....8SVXVHDR
0006FCC2 0000 0014 0000 0B92 0000 0000 0000 0020  ...............
0006FCD2 20AB 0100 0001 0000 4E41 4D45 0000 0014   .......NAME....
0006FCE2 4352 554E 4348 4241 5353 2D41 3200 0000  CRUNCHBASS-A2...
0006FCF2 0000 0000 414E 4E4F 0000 0014 4175 6469  ....ANNO....Audi
0006FD02 6F20 4D61 7374 6572 2049 4900 0000 0000  o Master II.....
0006FD12 424F 4459 0000 0B92 0001 0102 0202 0202  BODY............
0006FD22 0303 0303 0404 03FF FEFD FCFB F9F7 F5F4  ................
0006FD32 F4F4 F4F3 F3F2 F1F2 F5FC 0205 0503 FFFE  ................
0006FD42 0103 0607 070A 08F1 F2FE 0524 2917 06D7  ...........$)...
0006FD52 D1DE EDFD 0C18 F6DA E5F7 0D17 1123 20FE  .............# .
0006FD62 DCEC 192E 2119 1F0E F4E4 F110 13FE E8EC  ....!...........
0006FD72 0613 04F9 02F5 E5F2 FE13 0CFE 0903 F4FB  ................
0006FD82 050B 0C08 0910 0EFF 0816 1A19 0806 03EB  ................
0006FD92 E4F6 03FF FFFA 0711 03E9 D5DE FC17 211D  ..............!.
0006FDA2 2610 EBD8 EF0A 08FF F8FF 030C 3554 3E1B  &...........5T>.
0006FDB2 E4E7 0416 1B1C 16EC B8C6 F6E5 CCC8 D3EA  ................
0006FDC2 D7C5 C3D5 E0C6 C3DE ECEB FF24 3237 3002  ...........$270.
0006FDD2 0328 302B 2501 F4EF FF33 5446 2A09 0205  .(0+%....3TF*...
0006FDE2 F2FA F303 F0E4 E5FB EED8 D8E8 F5FE F709  ................
>m
0006FDF2 2D4E 4E36 221A 1312 274D 4E24 F6D5 DAE1  -NN6"...'MN$....
0006FE02 F0EE F8F6 E9E4 DCE5 D8CC A7A7 A5DA DFF7  ................
0006FE12 F0E3 D2D7 F215 140A 0BFA FEFB 0D25 3746  .............%7F
0006FE22 4D5D 4952 3A32 3019 19F4 FEDC E5DC D7E2  M]IR:20.........
0006FE32 DCD4 DFDE F900 040A FE0C 1E3A 292E 0AED  ...........:)...
0006FE42 0702 152B 2912 0BF6 E2D5 D9CC EDDE F9D9  ...+)...........
0006FE52 C4B9 ADAE D5E8 E1EC C3EC E8F9 0AEB F5DC  ................
0006FE62 F103 1022 2628 3043 4B6C 7F5D 7F55 4238  ..."&(0CKl.].UB8
0006FE72 181E 1005 F9DD CFAF B098 AE9E A4C6 ACCA  ................
0006FE82 D4D2 E9F6 FD06 1A17 2337 4754 4F53 342D  ........#7GTOS4-
0006FE92 1D24 2C14 4030 1F33 1EEC FDE1 DCFC DADE  .$,.@0.3........
0006FEA2 CACB BFBC CCDA BD96 B4C0 B0D5 EADA FCE2  ................
0006FEB2 DF16 173B 2C38 5832 3A3C 353E 2A16 1207  ...;,8X2:<5>*...
0006FEC2 FBF3 E4DD E9CC CCDC E2F7 F200 1106 0B23  ...............#
0006FED2 2030 3524 362F 2544 4338 5849 212D 15FD   05$6/%DC8XI!-..
0006FEE2 E7EC F8CA D3EA C9CA B58C A2AE 8081 B3A0  ................
0006FEF2 99B0 BDD5 E4F1 F814 342A 3153 6278 797E  ........4*1Sbxy~
0006FF02 7F7F 6B65 493D 3011 F7F4 E3CC BDBF B89D  ..keI=0.........
0006FF12 9CA8 A8A1 AFAC ACB7 C0BC C6DB EE0C 1620  ...............
0006FF22 3549 566B 6E74 7466 5959 4B46 3D37 3228  5IVknttfYYKF=72(


>m
0006FF32 2318 01FA F6E5 E3E1 D3C9 C7C8 D1C4 BDCD  #...............
0006FF42 D2CE E0E3 E5FD 0A04 0913 1612 00F4 F3EC  ................
0006FF52 DAC6 C4C9 C2B8 B2BD C0B7 ADC9 D2D4 D8EA  ................
0006FF62 FA0B 232D 3B46 5768 7270 717F 7F7F 6A6E  ..#-;FWhrpq...jn
0006FF72 7B69 5F43 403D 2812 0B11 EEC6 BCB8 B4A1  {i_C@=(.........
0006FF82 8F86 8281 8281 828A A0A9 ACC5 E3FC 0910  ................
0006FF92 253B 5363 5D58 6D6D 6D49 4940 2A1F 0809  %;Sc]XmmmII@*...
0006FFA2 05ED D6CD CFC7 B5B5 B7B8 B4B7 B8BF C7C6  ................
0006FFB2 C5CE E7F5 FC00 0F1D 2333 3A45 4244 4E50  ........#3:EBDNP
0006FFC2 564F 504D 4647 4436 2C22 1B19 0C01 F7F1  VOPMFGD6,"......
0006FFD2 EEEA E7E2 DEDA D6D8 DCE0 E4F3 F3EC E8E8  ................
0006FFE2 F4EF E4E0 D9C8 C2C3 C6C6 B7B1 BCC2 C4B8  ................
0006FFF2 B2CF DBE1 E3E7 0210 1629 3846 4A4A 5B64  .........)8FJJ[d
00070002 6B73 7F7F 7D72 6E73 765E 5042 2B1E 0F02  ks..}rnsv^PB+...
00070012 F5DD CEC6 BFAB 9085 8E90 8E87 8296 A2AC  ................
00070022 C1D4 E9F2 0113 2238 4D54 5055 484C 594A  ......"8MTPUHLYJ
00070032 4135 160B 0903 F6E2 D4CE CBC8 C0B7 BEC1  A5..............
00070042 BCC0 BDC2 CED6 D9E3 EAF0 000F 181C 212C  ..............!,
00070052 343F 4344 4B4A 4340 4045 453D 3730 2217  4?CDKJC@@EE=70".
00070062 120E 0802 F7ED EDE9 E3E7 E9E3 E1E5 E8F4  ................
>m
00070072 FBF2 F3F0 EBEC F0EB ECE1 D3C7 BFBC BFBD  ................
00070082 B9B7 BABD BEBD BFCE DDE8 F3F9 FF0A 1929  ...............)
00070092 3A46 4B50 5560 6A73 7670 6F6B 6B69 685C  :FKPU`jsvpokkih\
000700A2 4C3D 2F28 1D0C FFEB D8CE C0AB 9E9A 9798  L=/(............
000700B2 9A98 9597 A8B8 CEDD E1EB FA0A 2036 4339  ............ 6C9
000700C2 383B 3335 413E 2E20 0E00 00FA EEEA E2D3  8;35A>. ........
000700D2 CDCC C9CA CBC9 C5C2 C3CC DAE3 EBEE EFF4  ................
000700E2 FE07 1625 2D36 3C3E 4342 4A50 5754 4842  ...%-6<>CBJPWTHB
000700F2 3E39 322D 231B 130D 08FE F5ED E7E6 E4E3  >92-#...........
00070102 E1DD DADC E5EC EBEB E4DC DDE0 E5E3 DAD0  ................
00070112 C5C0 BFB9 BDBE BABC C2C6 C5C6 C9D3 E6F2  ................
00070122 F901 080D 1329 383E 484B 555E 656B 7172  .....)8>HKU^ekqr
00070132 6E6A 6A69 635C 594B 3D2E 1F15 05F5 E6D6  njjic\YK=.......
00070142 C3B0 A4A1 A0A2 A5A5 9F9B A5B5 C4D3 E2EE  ................
00070152 F5FB 0B20 2D28 2326 201F 232D 2C1B 0F05  ... -(#& .#-,...
00070162 FDF7 F0ED EAE0 D8D6 D4D3 D6D6 D8D6 D7D9  ................
00070172 DCE6 F1F1 F5F9 FF0A 1621 2D33 383B 3A43  .........!-38;:C
00070182 4C4F 524F 4C49 443E 3A35 2C1F 1510 07FE  LOROLID>:5,.....
00070192 F5EF E9E5 E1DC DAD7 D4DC E1E0 DED9 D5D0  ................
000701A2 CED2 D9D9 D2CC C7C8 C5C2 C0C4 C3C0 C6D0  ................

>m
000701B2 D6D3 D4D9 E9F5 FA08 0F17 1B1E 2E3F 444A  .............?DJ
000701C2 5158 6263 646A 6E6C 6969 645F 5448 3C33  QXbcdjnliid_TH<3
000701D2 2619 0BFE EFDB CABF B6B2 AEAB AEAE A8A3  &...............
000701E2 A7B3 BBC4 D0DA E2EC F807 1010 0C0F 1010  ................
000701F2 1520 241B 0E08 06FC F7F4 F1ED E4E1 E6E8  . $.............
00070202 E5E1 E2E7 E6E8 EFF4 FBFE 0108 0C12 1E27  ...............'
00070212 3033 3433 373B 4147 4948 453F 3734 322C  03437;AGIHE?742,
00070222 2318 100C 05FF FAF3 EBE1 DBDA DBDA DCDF  #...............
00070232 E1DF D7D2 CFCC C9CA CECF CECB C8C8 C6C1  ................
00070242 BEC2 C6CA CFD4 D9DC DDE0 E6F5 FF09 141B  ................
00070252 242B 3138 424A 4D55 5B5F 6364 6365 6664  $+18BJMU[_cdcefd
00070262 5F5B 5345 3930 281E 1509 F9EA DACE CAC6  _[SE90(.........
00070272 BEB9 B6B4 B1AE ADB4 BBBD C2CA D0DA E9F3  ................
00070282 F7F4 F0F3 F9FC 0008 0F0C 03FC FAFC F8F5  ................
00070292 F6F8 F5F0 F3F7 F6FA FAFB 0101 0407 0707  ................
000702A2 070A 1019 222D 3435 322F 3338 3B3D 3E42  ...."-452/38;=>B
000702B2 433D 3731 2B2A 231C 160D 05FE F8F1 E9E1  C=71+*#.........
000702C2 DCDB DBDD DCDB DBD4 CECE C9C5 C5C4 C6C7  ................
000702D2 C8C8 C5C5 C3C1 C1C4 C7CE D3D7 DCDF E5E9  ................
000702E2 EDF6 000A 121C 242B 333A 4042 464B 4E53  ......$+3:@BFKNS
>m
000702F2 575B 5F5E 5E5E 5C58 534D 4439 3127 1C13  W[_^^^\XSMD91'..
00070302 09FF F3E8 DFD8 D1C9 C3C0 BBB6 B4B6 B8BB  ................
00070312 BEBF C6CB D4DB E3E2 DFE2 E2E5 EAEC F2F6  ................
00070322 FAFC F9F6 F3F3 F3F7 FAFD FE00 0103 0507  ................
00070332 090B 1010 1012 1216 1D23 2B31 3638 3A39  .........#+168:9
00070342 3735 3538 3B3E 3D39 3530 2823 201C 150D  7558;>=950(# ...
00070352 04FE F9F1 EAE1 DDD9 D8D9 D9D8 D7D6 CFC9  ................
00070362 C7C2 BFBE BEC1 C4C6 C7C4 C2C3 C3C6 CACF  ................
00070372 D5D9 DDE3 E7ED EFF5 FB06 101A 2631 3335  ............&135
00070382 3C41 4346 4B51 5356 5A5A 5554 544F 4B48  <ACFKQSVZZUTTOKH
00070392 4540 3B33 261C 1309 0507 FADF D7D8 CECC  E@;3&...........
000703A2 C6C3 C5BD BBC3 C0B3 B7C1 C2C4 C3CB CECE  ................
000703B2 D0CF D6DB DFED F6F3 F3F8 F5F7 FB00 060A  ................
000703C2 0C0D 0E0E 1520 221D 1D21 272B 2B26 2121  ..... "..!'++&!!
000703D2 2228 2C2D 2E30 2D2D 2B27 2628 2A2A 2423  "(,-.0--+'&(**$#
000703E2 201D 1B17 1310 0B04 FFFC F5F3 F1EA E4E0   ...............
000703F2 DFE0 E0DF D9D3 CECA CBCB C8C3 C4C8 CBCB  ................
00070402 CECC C9CF CFD0 D2D6 D9DD E1E4 E9EF F6FC  ................
00070412 0102 050B 1620 272C 3131 3637 383A 3739  ..... ',11678:79
00070422 3F41 4446 4642 413F 3C38 3433 302A 271F  ?ADFFBA?<8430*'.

>m
00070432 170E 06FE F9F3 EBE2 DDD8 D5D2 CECB C8C5  ................
00070442 C4C2 C2C2 C0C4 C9CE D1D2 D5DA DEE2 E5E7  ................
00070452 ECEF F2F6 FAFE 0105 080E 1416 191D 2123  ..............!#
00070462 2224 2525 211E 1F1E 1C1B 1816 1511 1011  "$%%!...........
00070472 1212 1212 1310 0E0D 0B0A 0705 0300 FCFB  ................
00070482 FBF9 F9F6 F3F3 F1F0 F2F1 F1EF EDED EDEC  ................
00070492 ECE9 E8E7 E4E7 EBED EEEE EFF1 F1F2 F4F7  ................
000704A2 F8F8 F8F9 FBFC FDFF FFFF FFFF 0103 0404  ................
000704B2 0407 0502 0204 0507 0709 0A09 0908 090B  ................
000704C2 0908 0809 0907 0808 0906 0404 0404 0201  ................
000704D2 00FE FCFC FEFD FDFB F9FA FAFA FBFC FCFD  ................
000704E2 FEFF 0101 0205 0408 0C0A 0D0E 1011 0E0D  ................
000704F2 0D0C 0A09 0608 0503 0200 FEFB FAF8 FBFA  ................
00070502 FAFB FAFB F9F8 FCFD FDFE FF02 0201 0405  ................
00070512 0403 0203 0403 0303 0303 0303 0302 0100  ................
00070522 0101 0001 0000 FEFE FDFC FBFA FBFC FDFF  ................
00070532 00FF 01FF FFFF FFFF 0000 0001 0201 0002  ................
00070542 0100 0001 0200 FF01 0103 0200 0203 0202  ................
00070552 0407 0808 0606 0706 0404 0403 0301 0102  ................
00070562 01FE FF00 FDFA F9F8 F8F9 F8F8 F7F6 F6F6  ................
>m
00070572 F7F6 F7F8 F9FB FCFF 0102 0300 0102 0405  ................
00070582 0709 0A0B 0A08 0809 0808 0707 0806 0503  ................
00070592 0401 FCFB FCFA F9FA FBFC FBFB FAFB FCFC  ................
000705A2 FEFF FE00 0102 0302 0403 0302 0203 0302  ................
000705B2 0201 0301 01FF FDFD FBFC FCFD FDFC FBFB  ................
000705C2 FBFB FCFC FCFD FDFE FF00 0203 0404 0302  ................
000705D2 0202 0202 0300 FFFF 00FF 0100 FFFF FFFE  ................
000705E2 0002 0203 0001 0203 0505 0607 0503 0304  ................
000705F2 0504 0200 0000 0003 0403 FFFD FAF7 F8F8  ................
00070602 F7F7 F6F5 F7F6 F6F7 F8FA F9F9 FCFE 0003  ................
00070612 0304 0606 0609 0B0C 0C0C 0D0D 0D0D 0A08  ................
00070622 0703 0101 FFFE FDFB F9F9 F8F7 F6F6 F8FA  ................
00070632 FAFB FAFB FCFC FDFD FEFE FFFF 0002 0102  ................
00070642 0305 0504 0404 0405 0304 0605 0604 0203  ................
00070652 0100 0200 00FF FEFD FDFC FDFD FEFF FF01  ................
00070662 01FF 0102 0202 00FE FDFD FBFD FFFD FCFA  ................
00070672 FAFB FCFD FDFE FF01 0201 0303 0203 0404  ................
00070682 0506 0607 0706 0503 0302 0303 00FF FFFE  ................
00070692 FDFC FCFA F7F7 F7F8 F9F8 F8F8 F8F8 F8FA  ................
000706A2 FBFB FCFC FF01 0202 0507 080A 0C0D 0E0D  ................


0706C2 FBF8 F6F7 F8FA FAF7 F9F8 F7FA FAFB FCFA  ................
000706D2 FBFE FF00 0000 0000 0001 0203 0403 0402  ................
000706E2 0103 0302 0202 0200 0000 0000 0000 00FF  ................
000706F2 FFFF 0000 00FF FFFF 0000 0100 0000 0000  ................
00070702 0000 0000 0000 0000 0000 0001 0103 0402  ................
00070712 0202 0202 0303 0505 0303 0201 0000 0101  ................
00070722 0100 00FF FFFF FFFD FCFA F9F7 F7F8 F8F8  ................
00070732 F8F7 F9F9 F9FC FCFC FCFE FF00 0000 0202  ................
00070742 0305 0607 0809 0909 0909 0909 0A0A 0906  ................
00070752 0403 0201 0100 00FF FEFD FDFC FDFD FCFD  ................
00070762 FCFB FCFD FDFC FCFD FEFE FF00 0000 0000  ................
00070772 0001 0202 0202 0201 0102 0302 0201 0000  ................
00070782 0000 0000 FEFD FDFE FEFE FEFE FEFD FDFE  ................
00070792 FFFF FFFF FF00 0000 0001 0000 0001 0302  ................
000707A2 0203 0303 0103 0504 0504 0302 0102 0303  ................
000707B2 0201 0000 0000 0000 FFFF FFFE FEFE FCFB  ................
000707C2 FBFA F9FA FAFB FAFB FBFC FCFC FDFD FFFF  ................
000707D2 FF00 0000 0001 0102 0303 0405 0505 0505  ................
000707E2 0505 0505 0504 0403 0302 0202 0100 0000  ................
>m
000707F2 FFFF FEFD FEFD FDFD FDFD FDFE FEFF FFFE  ................
00070802 FEFE FFFF 0000 0000 0000 0000 0101 0101  ................
00070812 0102 0100 0000 0000 0000 0000 FFFF FF00  ................
00070822 FF00 0000 00FF FFFF FFFF FF00 0000 0000  ................
00070832 0000 0000 0101 0101 0101 0101 0102 0202  ................
00070842 0101 0101 0101 0101 0100 0000 0000 0000  ................
00070852 0000 FFFF FFFE FDFD FEFE FDFD FEFD FDFD  ................
00070862 FEFE FEFE FEFF FFFF 0000 0000 0101 0101  ................
00070872 0202 0203 0303 0303 0302 0202 0202 0101  ................
00070882 0101 0000 0000 0000 00FF FFFF FEFF FEFF  ................
00070892 FFFF FFFF FFFF FFFF FFFF 0000 0000 0000  ................
000708A2 0000 0000 0000 0000 0000 



; Sample 06
sample_file_06
                ; --------------------- Sound Sample 6 -------------------
                ; Start Address: $000708AC
                ; Name:         TIMELESS-A4     
>m 000708AC
000708AC 464F 524D 0000 13C6 3853 5658 5648 4452  FORM....8SVXVHDR
000708BC 0000 0014 0000 0DA8 0000 05BE 0000 0020  ...............
000708CC 20AB 0100 0001 0000 4E41 4D45 0000 0014   .......NAME....
000708DC 5449 4D45 4C45 5353 2D41 3400 0000 0000  TIMELESS-A4.....
000708EC 0000 0000 414E 4E4F 0000 0014 4175 6469  ....ANNO....Audi
000708FC 6F20 4D61 7374 6572 2049 4900 0000 0000  o Master II.....
0007090C 424F 4459 0000 1366 0000 0001 0000 0001  BODY...f........
0007091C F4CD CACB BFA6 A296 C507 1214 07F9 0423  ...............#
0007092C 10ED 0028 4F48 2511 0B49 6F5C 472A 0E00  ...(OH%..Io\G*..
0007093C 051B 11F7 E4E8 FA09 E9D0 B6A7 9B9C DDFF  ................
0007094C 0609 FEFA 131B FDF3 0E32 4832 1503 0F52  .........2H2...R
0007095C 644C 351A 01FF 101B 04EB E8E3 FCFD D3C4  dL5.............
0007096C A8A9 98CB ECFC 0303 F717 160D FEF8 1435  ...............5
0007097C 3E25 0CFB 194C 5943 210F FB04 2013 F9E7  >%...LYC!... ...
0007098C E5DE FDEF C4BC A7A7 B7E0 E9F6 FFFE 0825  ...............%
0007099C 0F06 FEFB 2433 3118 02FF 1E47 5036 1005  ....$31....GP6..
000709AC F819 210A F0E7 E1E0 FDE0 BBB5 AFB3 DCE5  ..!.............
000709BC E7F7 0202 2721 060B F703 2F2E 240D FC0B  ....'!..../.$...
000709CC 1C40 4527 07FE 0127 1B00 EDE7 DBE7 F8D0  .@E'...'........
000709DC B4AE BADF E9E3 E3F9 021A 2F15 0704 ED12  ........../.....

>m
000709EC 3026 1704 0113 1638 3C1A 01F9 1829 11F8  0&.....8<....)..
000709FC EFE5 D7EF EEC3 AFAF E9F5 E9E1 E4FF 132C  ...............,
00070A0C 2B0E 09F9 EB20 2C1D 0A01 0C13 0E32 320D  +.... ,......22.
00070A1C 00FD 2321 08F4 EDE1 D8F1 E2B9 ADCE 0AF3  ..#!............
00070A2C E7DE EA0C 2232 1E13 FEEA F620 2311 FF04  ...."2..... #...
00070A3C 120D 072C 280A FD06 2118 00F6 EADD DFF2  ...,(...!.......
00070A4C D6B4 B308 0CEF E4E0 F51C 2E30 1A16 EFE3  ...........0....
00070A5C 031C 1C04 FD09 1307 0323 1D0B 0113 1E11  .........#......
00070A6C FEF6 E7D7 E1E9 C9B1 DF23 02EA E0E7 0520  .........#.....
00070A7C 3129 1F0C E0EA 0916 13F9 FF0E 0FFD FE1C  1)..............
00070A8C 1908 0913 1509 FFF2 E2DB E4DE BFC6 0E28  ...............(
00070A9C FBE7 E5FD 0C28 2F27 1DFB D8F3 070E 0AF7  .....(/'........
00070AAC 0012 09F6 F818 1609 0D11 1108 01EE E0E0  ................
00070ABC E4D6 C5F4 231A F3E6 F70C 0F2C 2D2B 18E9  ....#......,-+..
00070ACC D9F7 0104 00F4 030E FFED F113 120D 0E0A  ................
00070ADC 0A0A FCE9 DDE3 DDD0 DF16 280C EDEF 0F0D  ..........(.....
00070AEC 152C 3627 0ADD DCF6 FAFE FCF1 0608 F7E7  .,6'............
00070AFC F311 150C 0F04 0609 F6E6 E2E7 D8E1 FD25  ...............%
00070B0C 2C01 EB0C 140B 1A2E 361A F7DC DDF5 F5F8  ,.......6.......
00070B1C F9F2 0201 EFE2 F70B 130B 0DFF 0904 F0E5  ................
>m
00070B2C E7E4 E1F6 122D 26F6 0016 0E11 1A38 2F10  .....-&......8/.
00070B3C EBDC DDEF ECF5 EFF6 FCF9 E8E2 F90C 100D  ................
00070B4C 0AFF 0BFE EBE2 EAE5 F204 1E37 1DFC 1615  ...........7....
00070B5C 0D16 233C 2407 E9DB DBEA ECF3 F0F7 F7F0  ..#<$...........
00070B6C E0EA F905 090D 0600 06F9 E6E2 EBEF 000C  ................
00070B7C 2B37 1214 1A0E 1017 2831 15FE E3D7 D7E4  +7......(1......
00070B8C EFEB F2F3 EFE8 E2EF F7FB 040D 0501 FFF3  ................
00070B9C E7EB FCFE 0818 3230 1D1E 160B 1320 2523  ......20..... %#
00070BAC 0AFA DCD6 D3E4 EDE2 F2ED E8E5 EAFC F4F7  ................
00070BBC 0A10 0DFF FAF0 E7FB 0D0A 0B2E 2E33 271D  .............3'.
00070BCC 0F0E 1923 1B11 03EB D5CF CDE5 E6E0 EEE6  ...#............
00070BDC DEE7 EDFE ECF5 0E12 0CFB F7EC EF10 180A  ................
00070BEC 1835 2E3A 2718 0B12 231E 1205 02DF D4CB  .5.:'...#.......
00070BFC C9E3 E3E6 ECE1 DCED F5F8 E7F5 1013 07F4  ................
00070C0C EFED 0D23 1D08 2937 3D39 2112 0E20 2718  ...#..)7=9!.. '.
00070C1C 0602 F8D1 CFC2 C3DB DEE1 E3D9 DEF1 F6F1  ................
00070C2C E9F8 1413 01ED E9FC 2033 1A11 3745 402F  ........ 3..7E@/
00070C3C 1A0E 192B 2210 FA02 E9CC CABB BAD4 DFDD  ...+"...........
00070C4C E0DB E5F8 F5EF EAFA 1810 FDEA EE16 3833  ..............83
00070C5C 1822 484A 3B24 1412 2929 1A09 F6FF DCCD  ."HJ;$..))......

>m
00070C6C C6B6 B4D5 DCD6 DBE0 EDF7 F2F2 E700 160A  ................
00070C7C F6E5 FE2C 442D 1931 574A 331B 1021 2E22  ...,D-.1WJ3..!."
00070C8C 10FD F2F3 CDCB BEAD AFD6 D6D2 DCE4 F4F4  ................
00070C9C F2F1 E905 1406 F5F4 1143 442A 1F4A 5649  .........CD*.JVI
00070CAC 2712 132E 2B19 07F9 ECDF C6C8 B5A5 B0D5  '...+...........
00070CBC CFCB DFEF F9F0 F2EA EA02 0F03 FC02 2C4F  ..............,O
00070CCC 3F2A 3757 5645 1809 2532 2412 01F6 E4CF  ?*7WVE..%2$.....
00070CDC C4C2 AC9D B3CD CBCD E8F7 F9F2 F2E5 EDFE  ................
00070CEC 0B05 0B0C 424F 3C36 4A58 553B 0B11 312C  ....BO<6JXU;..1,
00070CFC 1B09 01F2 D9C2 C4B9 A59C B8C9 C9D3 F1FF  ................
00070D0C F7F3 ECE5 EFFB 0712 1122 4C4D 3F47 4C59  ........."LM?GLY
00070D1C 4E2B FE21 3124 1300 FFE6 C6B8 C0AF 9DA2  N+.!1$..........
00070D2C B8C7 CAD9 F7FF F9F0 E6E6 EEF5 111B 1D35  ...............5
00070D3C 4F51 4F50 4D59 461B 082A 2E21 0D03 FADC  OQOPMYF..*.!....
00070D4C B6B4 BBA7 9AA7 B3C2 D2E5 FCFE FBE9 E1EB  ................
00070D5C ECF5 1B1F 2C43 525F 5851 5355 3C0F 1828  ....,CR_XQSU<..(
00070D6C 2818 0504 EFCE A7B2 B49F 9DA8 ABC1 DCEC  (...............
00070D7C FE00 F6E0 DEEC E9FF 1C2C 3346 5A64 5C53  .........,3FZd\S
00070D8C 574E 2F1B 2127 2311 0802 E4C2 A1B2 AC99  WN/.!'#.........
00070D9C A2A6 A7CA E6F1 FB00 EEDA E3EE F504 2433  ..............$3
>m
00070DAC 3B52 6762 5A54 5546 2C27 1F22 1C0B 09F9  ;RgbZTUF,'."....
00070DBC DAB1 9BAD A298 A6A1 ACD5 EBEE F9F9 E4D7  ................
00070DCC EAF5 FE05 3037 4B68 6D64 6057 4F3E 352A  ....07Khmd`WO>5*
00070DDC 1B1C 140A 05ED CCA3 99A7 9A9D A79D B3DA  ................
00070DEC EDEE FBF4 DCD9 F202 FE12 3339 6070 6563  ..........39`pec
00070DFC 5F51 463F 3B26 1716 0D0B FFE1 BD9A 949E  _QF?;&..........
00070E0C 97A1 A39C BBE0 EDF1 F5EE D5DE 0105 081C  ................
00070E1C 3049 6F6E 5F67 5E4D 444C 3922 120F 0E09  0Ion_g^MDL9"....
00070E2C F7D6 AF95 9096 98A2 A2A4 C3E1 EBEF EEE6  ................
00070E3C D1F0 0C09 171D 3261 746A 6169 5B46 4B4F  ......2atjai[FKO
00070E4C 321B 0C07 0E05 EECA A393 8D91 9EA4 A7AD  2...............
00070E5C C7DF F0EE E9DF D502 0E16 1B18 436E 7461  ............Cnta
00070E6C 6167 5445 554A 2815 0507 0DFE E2BD 9D91  agTEUJ(.........
00070E7C 8B94 A0A6 AFB3 C9DF F0E9 E4D9 EA0D 1621  ...............!
00070E8C 1A23 5971 715E 6663 4F4E 5C42 200F 0005  .#Yqq^fcON\B ...
00070E9C 06FB E5C2 A697 8C93 9EA9 B2B4 C0D7 E5E4  ................
00070EAC DFDE EC04 1921 1F2D 4E67 6E65 6761 5655  .....!.-NgnegaVU
00070EBC 5942 2713 0503 00F2 D8B7 A193 8A92 A0B0  YB'.............
00070ECC B5B2 C0D8 E3E1 DEE3 F510 2124 2936 536A  ..........!$)6Sj
00070EDC 6B67 635B 595D 583B 1F0D 04FF F8E7 CBB0  kgc[Y]X;........

>m
00070EEC 9D8E 8993 A7B6 B7B3 C4D8 DFDD E4E6 FF1E  ................
00070EFC 272D 343F 596C 6A68 5C5A 5D5F 512F 160C  '-4?Yljh\Z]_Q/..
00070F0C 03FB F1DC C0A9 968B 8998 B1BB B7B2 C4D6  ................
00070F1C DCE3 E9EB 0C24 2C36 3944 5C6A 6862 585D  .....$,69D\jhbX]
00070F2C 5F5A 4626 0F0B FFF3 E6D1 B8A4 928B 8CA0  _ZF&............
00070F3C B8BC B5B5 C5D1 DDEB EBF6 182A 373D 3C49  ...........*7=<I
00070F4C 5E67 645A 5A60 5E56 3C1B 0F0B FBEB DDC9  ^gdZZ`^V<.......
00070F5C B5A1 8F8D 91A7 BDBD B9B9 C6D2 E4F0 EE04  ................
00070F6C 2034 3E3F 3F4A 5B62 5E58 5D62 5C4E 3215   4>??J[b^X]b\N2.
00070F7C 0F08 F5E3 D6C1 AF9A 8E8F 95AB BDBD B9B9  ................
00070F8C C3D7 EBF1 F90F 2C3D 4340 404C 565D 595C  ......,=C@@LV]Y\
00070F9C 6163 5744 2611 0CFF EADA CEB9 A793 8C91  acWD&...........
00070FAC 95A8 B9BA BAB8 C8DE EFF6 021B 3843 443E  ............8CD>
00070FBC 434B 5157 5C63 6464 523B 1F12 0AF9 E3D2  CKQW\cddR;......
00070FCC C4B2 A192 9297 9AAD B9BC BABD D2E2 F2FE  ................
00070FDC 0D2B 4049 4541 4547 4C55 6165 6560 4B31  .+@IEAEGLUaee`K1
00070FEC 1C12 05F2 DDCB BAAB 9C92 979C 9CAD B8BC  ................
00070FFC BCC7 D8E6 F903 1A33 4449 423E 4342 4757  .......3DIB>CBGW
0007100C 6163 6359 4128 190E FDEB D7C4 B3A7 9A97  accYA(..........
0007101C 9EA1 A0AB B7BC C5CF DBEC 000F 2739 4749  ............'9GI
>m
0007102C 4140 4140 4A5A 6163 6253 3823 1809 F7E6  A@A@JZacbS8#....
0007103C D1BC ACA0 999C A2A5 A1AA B7C2 CFD4 E0F5  ................
0007104C 061C 2E3D 4946 3F40 3F41 515D 6365 5F4A  ...=IF?@?AQ]ce_J
0007105C 2F20 1300 EEDD C8B4 A99E 9EA3 A7A7 A2AB  / ..............
0007106C BACA D3D6 E8FB 1126 2F3F 4742 3F3E 3E4B  .......&/?GB?>>K
0007107C 585E 6264 5941 291D 0DFA E8D7 C1AF A49E  X^bdYA).........
0007108C A2A5 A6A5 9FA9 C1CF D4DA EE06 1A28 2E3B  .............(.;
0007109C 423E 3B3B 4454 5C5F 6261 5039 2518 07F4  B>;;DT\_baP9%...
000710AC E4D1 BEAE A4A1 A4A6 A7A5 A1AF C8D2 D6E4  ................
000710BC F90E 1D26 2C39 3E3B 373C 4E5B 5F60 5F59  ...&,9>;7<N[_`_Y
000710CC 4730 1F11 00EE DECD BAAD A4A2 A4AA AAA7  G0..............
000710DC A5B8 CBD2 DEED 0713 1D23 2A36 3938 3844  .........#*6988D
000710EC 5861 6260 5B50 3F2A 180A FAE7 D6C6 B6AA  Xab`[P?*........
000710FC A5A1 A2AA A8A8 ADBA CAD7 E9FB 0D14 1D21  ...............!
0007110C 2933 3436 3B4E 5F63 605B 5448 3925 1404  )346;N_c`[TH9%..
0007111C F6E3 D4C7 B6AB A8A2 A7AE AAB1 B5BD CDE1  ................
0007112C F605 0F15 1B1D 262D 3034 4357 6162 5D55  ......&-04CWab]U
0007113C 4D41 331C 0CFF EEDD D0C4 B5AD A8A1 AAAC  MA3.............
0007114C ADB5 B5B9 D0EB FF09 0E17 1B1C 2327 2D39  ............#'-9
0007115C 4D5E 6462 5B51 463D 2D16 09FB E9D8 CEC2  M^db[QF=-.......


>m
0007116C B6AF A7A4 AAAC B3B9 B5BC DBF8 050A 0E17  ................
0007117C 1A1A 1E22 2E42 5562 6461 574A 4038 250D  ...".BUbdaWJ@8%.
0007118C 01F4 E4D7 CCBF B7AF A8A7 AAB1 B5B7 B3C4  ................
0007119C E800 090A 0F18 1917 1C24 354B 5B64 655F  .........$5K[de_
000711AC 5344 3D34 1D08 FDEF E1D5 C9C1 B9B1 ABA8  SD=4............
000711BC B2B9 B7B4 B7D1 F304 0909 1018 1613 1825  ...............%
000711CC 3D53 6065 645D 4E3F 392D 1401 F6E9 DDD2  =S`ed]N?9-......
000711DC C8C2 BAB1 ACAC B9BA B5B5 C2E0 F905 0708  ................
000711EC 1216 1210 162B 4357 6366 6359 473C 3424  .....+CWcfcYG<4$
000711FC 0CFA F0E5 DBD0 C6C1 B9B0 ACB3 BBB8 B3BB  ................
0007120C D0E6 FA04 0708 1214 0F0F 1B35 4C5E 6867  ...........5L^hg
0007121C 6355 443E 331E 05F5 EBE3 DACE C7C3 B8AE  cUD>3...........
0007122C B1B7 BBB7 B5C7 D8E7 F701 0308 1010 0B0D  ................
0007123C 223D 5463 6967 5F4D 433D 2D15 FBED E8E0  "=Tcig_MC=-.....
0007124C D7CB C7C3 B7B0 B7B8 B9B7 C2D5 DEE9 F701  ................
0007125C 0207 0C0C 0812 2C44 5965 6965 5848 433A  ......,DYeieXHC:
0007126C 260C F3E9 E5DE D5CB CAC3 B6B6 B9B8 B8BF  &...............
0007127C D0DB E0E8 F5FD FE04 0909 071B 344A 5E69  ............4J^i
0007128C 6A61 5149 4538 2002 EAE6 E3DC D1CC CBC1  jaQIE8 .........
0007129C BDBB B9B7 BACC D8DB DEE5 F3FB FC02 0706  ................
>m
000712AC 0D24 3C52 616A 685C 4D49 4230 15F6 E4E2  .$<Rajh\MIB0....
000712BC E1DB D1D0 CBC6 C3BD BAB6 C7D8 DCDD DEE5  ................
000712CC F0F6 F902 0507 122B 4357 656A 6556 4C49  .......+CWejeVLI
000712DC 3F29 0BEE E1DF DED7 D2D2 CECC C5BC B8BD  ?)..............
000712EC D2DC DBDA DBE1 ECF1 F7FF 030A 1932 4A5C  .............2J\
000712FC 6769 6153 4F49 3B23 03E9 DDDD DBD4 D4D3  giaSOI;#........
0007130C D3CF C5BC BBCA DBDF DAD9 D9DD E7ED F5FC  ................
0007131C 060F 213B 5160 6767 5D53 4F46 3419 FAE2  ..!;Q`gg]SOF4...
0007132C D9D9 D6D3 D8DA D8CF C2BB C5D4 DDDE D8D5  ................
0007133C D4D8 E0EA F3FC 0813 2943 5864 6866 5C55  ........)CXdhf\U
0007134C 5043 2E11 F4DE D7D7 D4D6 DEDF D9CD C0C1  PC..............
0007135C CFD9 DEDC D6D2 D1D4 DDE9 F201 0C18 314B  ..............1K
0007136C 5C65 6662 5D57 4E3D 2509 EDD9 D3D2 D1DB  \efb]WN=%.......
0007137C E5E2 D8C9 C2CE D8DC DDD9 D3CF CCCE D8E6  ................
0007138C F304 1020 3A52 5F64 6462 5D56 4936 1E02  ... :R_ddb]VI6..
0007139C E9D6 D0CE D2E3 E9E2 D3C7 CED8 DBDC DBD6  ................
000713AC D0CC C8C9 D6E6 F708 1527 4257 5F63 6462  .........'BW_cdb
000713BC 5E53 4330 17FC E3D0 CBCB DAEA E9E0 D0CE  ^SC0............
000713CC D9DD DDDB D8D2 CBC7 C2C4 D4E8 FA0A 1A2E  ................
000713DC 4858 6063 6463 5C4F 3E29 11F6 DECC C7D0  HX`cdc\O>)......
>

>m
000713EC E4EE E9DD D2DA E1E0 DED9 D3CE C7C3 BFC2  ................
000713FC D6ED FD0E 2035 4D5B 6063 6563 594A 3924  .... 5M[`cecYJ9$
0007140C 0CF2 D9C8 C8DA ECEE E8DB DCE3 E5E1 DDD5  ................
0007141C CEC9 C3BD BAC1 D8ED FD10 263C 515C 5F63  ..........&<Q\_c
0007142C 6460 5444 321D 06EC D4C7 CFE5 F0EE E5E1  d`TD2...........
0007143C E6E8 E5E0 D9D0 C9C5 C0BA B7C3 DCEE FF16  ................
0007144C 2A41 545C 6062 625C 4F3F 2D19 00E7 D1C9  *AT\`bb\O?-.....
0007145C DAEE F3EE E9EC EBE9 E5E0 D6CB C5C2 BCB7  ................
0007146C B6C7 DFF1 021B 3148 575D 6061 6057 4A39  ......1HW]`a`WJ9
0007147C 2813 FAE0 CFD1 E5F2 F3EF F1F1 ECE7 E1DB  (...............
0007148C CFC5 C0BC B7B3 B8CA E1F3 071F 394E 595F  ............9NY_
0007149C 6162 5E54 4535 250F F5DE D4DB EDF6 F3F5  ab^TE5%.........
000714AC F8F4 EBE5 DFD5 C9C1 BCB8 B3B1 BBCC E1F3  ................
000714BC 0924 3F51 5B60 6161 5A4F 4132 2209 F0E0  .$?Q[`aaZOA2"...
000714CC DBE5 F3F7 F9FD FAF1 E8E1 D8CD C1BA B6B3  ................
000714DC B0B2 BDCD E2F5 0C2C 4554 5D61 6260 574B  .......,ET]ab`WK
000714EC 3E30 1D05 F0E5 E1EC F7FC 0102 FAF0 E6DC  >0..............
000714FC D3C6 BCB6 B2B0 AFB5 C0D0 E6F9 1133 4B57  .............3KW
0007150C 5E61 615E 5347 3B2C 1700 F3E8 E6F1 FA02  ^aa^SG;,........
0007151C 0701 F7EC E2D7 CBBF B5AF ADAD B1B6 C0D1  ................
>m
0007152C E7FB 1839 4D58 5F61 6159 4E44 3928 1201  ...9MX_aaYND9(..
0007153C F6ED EDF7 020B 0A00 F5EA DDD1 C5B9 B0AA  ................
0007154C A8AC B1B8 C2D3 E7FF 213F 515B 6062 6057  ........!?Q[`b`W
0007155C 4B42 3624 1205 F9F1 F2FF 0C10 09FD F1E4  KB6$............
0007156C D8CC C0B4 ABA4 A5AD B2B9 C5D5 E805 2742  ..............'B
0007157C 525B 6063 5E53 483F 311F 1307 FCF5 F909  R[`c^SH?1.......
0007158C 1512 07FA EDE0 D2C6 B9AF A5A1 A6AD B3BC  ................
0007159C C7D5 EA0B 2C43 525A 6162 5A50 453B 2E20  ....,CRZabZPE;.
000715AC 1509 FEFB 0413 1811 05F6 E8DB CDC0 B4AA  ................
000715BC A2A3 A9AE B5BF C8D5 EE12 2F43 515B 6060  ........../CQ[``
000715CC 584D 4137 2D22 1609 0102 0D1A 1A0F 01F2  XMA7-"..........
000715DC E4D6 C9BC B0A7 A2A5 AAB0 B8C0 C9D6 F617  ................
000715EC 2F43 525B 605E 5549 3E36 2F23 160A 070C  /CR[`^UI>6/#....
000715FC 171D 190C FDED DED2 C5B7 ABA4 A1A6 AAB1  ................
0007160C BAC0 C6D7 F919 2F43 535C 605D 5447 3B39  ....../CS\`]TG;9
0007161C 3123 150E 0E15 1C1D 1507 F7E7 D9CD C0B2  1#..............
0007162C A8A1 A1A6 ABB4 BBC0 C7DC FF1B 3146 555E  ............1FU^
0007163C 605C 5244 3E3D 3223 1716 181E 201D 1202  `\RD>=2#.... ...
0007164C F1E1 D5C9 BBAC A39F A1A5 AAB4 BABE C9E1  ................
0007165C 031D 3449 585F 5F5A 4F44 413D 3122 1C1D  ..4IX__ZODA=1"..


>m
0007166C 2023 211A 0CFC EADB CFC3 B3A7 A09F A0A5   #!.............
0007167C ACB4 B9BE CCE6 061F 394D 5A60 5F57 4D48  ........9MZ`_WMH
0007168C 443D 3024 2224 2724 1F16 07F6 E6D7 CBBD  D=0$"$'$........
0007169C AEA4 A09F A2A6 ADB6 BAC2 D3EC 0924 3C50  .............$<P
000716AC 5B5F 5D55 4E4A 443C 2F28 282A 2923 1C10  [_]UNJD</((*)#..
000716BC 01EE DFD1 C5B6 A9A3 9F9E A1A5 AEB6 BAC5  ................
000716CC D8F2 0D28 4152 5A5E 5B54 504A 4339 312E  ...(ARZ^[TPJC91.
000716DC 2F2E 2B22 180B FAE9 DBCC BFB2 A7A2 9FA1  /.+"............
000716EC A2A6 B0B7 BECB DFF8 142E 4453 5B5D 5956  ..........DS[]YV
000716FC 514A 4039 3533 3331 2A1E 1304 F3E4 D6C7  QJ@95331*.......
0007170C B8AD A5A2 A1A0 A2A6 B0B8 C1D0 E6FC 1830  ...............0
0007171C 4553 5A5C 5B57 5149 413C 3939 3732 281B  ESZ\[WQIA<9972(.
0007172C 0DFD EDDE D0C0 B3A9 A4A2 A1A0 A1A7 B0BA  ................
0007173C C5D7 ED03 1C33 4753 5B5D 5B57 5149 423E  .....3GS[][WQIB>
0007174C 3E3C 3932 2517 07F8 E8D9 CABA ADA8 A4A2  ><92%...........
0007175C A09F 9FA8 B1BB C9DD F208 1E35 4753 5B5C  ...........5GS[\
0007176C 5A57 504C 4442 433E 3A31 2112 02F3 E3D4  ZWPLDBC>:1!.....
0007177C C4B5 ACA9 A5A2 9F9D 9FA9 B4BF CFE4 F90C  ................
0007178C 2036 4651 595B 5955 524E 4849 4740 3A2E   6FQY[YURNHIG@:.
0007179C 1D0D FCEE DECE BFB2 ADA9 A4A1 9E9C A1AB  ................
>m
000717AC B7C4 D6EB FF0E 2236 4550 5759 5856 554F  ......"6EPWYXVUO
000717BC 4B4C 4841 392A 1606 F7E8 D8C7 B9B0 ACA9  KLHA9*..........
000717CC A4A0 9C9B A2AD BAC9 DCF2 0311 2536 4450  ............%6DP
000717DC 5758 585A 5852 514F 4942 3826 1302 F3E3  WXXZXRQOIB8&....
000717EC D3C3 B8B2 AEA9 A4A0 9C9C A4B0 BDCD E4F8  ................
000717FC 0512 2435 434F 5658 5A5D 5956 544F 4841  ..$5COVXZ]YVTOHA
0007180C 3420 0CFD EEDE CDC0 B7B2 ADA7 A19E 9A9C  4 ..............
0007181C A7B5 C2D5 ECFD 0815 2437 4550 5659 5D5E  ........$7EPVY]^
0007182C 5B5A 574F 493F 301B 07F9 E8D8 C9BF B8B3  [ZWOI?0.........
0007183C ACA6 A19D 999E AAB8 C6DC F200 0B14 2638  ..............&8
0007184C 454F 5559 5C5D 5D5C 554E 463A 2A15 01F3  EOUY\]]\UNF:*...
0007185C E3D3 C6BF B8B2 ACA6 A09C 9BA2 AEBC CCE4  ................
0007186C F804 0C17 2939 464E 5458 5C5F 5F5C 544C  ....)9FNTX\__\TL
0007187C 4236 240E FCEE DDCF C6BE B8B3 ACA6 A09C  B6$.............
0007188C 9DA7 B4C1 D4EC FD07 0E1B 2C39 454D 5357  ..........,9EMSW
0007189C 5B5D 5E5A 5148 3F32 1E09 F7E8 D9CD C5BE  []^ZQH?2........
000718AC B8B2 ABA5 9F9C 9FAC B8C6 DCF3 020A 1320  ...............
000718BC 2D38 434C 5257 5B5E 5D57 4E45 3B2C 1803  -8CLRW[^]WNE;,..
000718CC F2E2 D4CC C4BD B8B2 AAA4 9F9D A5B0 BCCD  ................
000718DC E5F8 050D 1924 2E39 434B 5257 5C5E 5C55  .....$.9CKRW\^\U

>m
000718EC 4B42 3726 11FD EDDE D3CC C3BD B7B1 AAA3  KB7&............
000718FC 9F9F A9B3 BFD5 EBFD 0811 1C25 2D37 424B  ...........%-7BK
0007190C 5258 5C5D 5A52 483F 3220 0BF7 E7DB D4CB  RX\]ZRH?2 ......
0007191C C3BD B8B1 A9A3 A0A4 AFB7 C6DE F302 0D17  ................
0007192C 2027 303B 434D 5459 5D5D 584E 443A 2D19   '0;CMTY]]XND:-.
0007193C 04F0 E2D9 D3C9 C2BC B7AF A8A3 A1A9 B1B9  ................
0007194C CCE4 F705 121A 2127 303A 434D 5459 5D5D  ......!'0:CMTY]]
0007195C 554B 4236 2613 FEEC E0D9 D2C8 C1BC B5AE  UKB6&...........
0007196C A8A4 A5AC B4BF D4EB FC0C 161C 242A 3039  ............$*09
0007197C 434C 5459 5C5A 5248 3E32 210D F8E7 DED8  CLTY\ZRH>2!.....
0007198C D1C8 C1BB B3AD A8A5 A9B0 B7C6 DDF2 0310  ................
0007199C 191E 262B 2E37 414C 5359 5B57 4E45 3A2C  ..&+.7ALSY[WNE:,
000719AC 1906 F3E5 DCD7 CEC7 C0B8 B1AC A8A8 ACB2  ................
000719BC BCCE E5F9 0A15 1B22 292A 2D36 414B 5359  .......")*-6AKSY
000719CC 5954 4B42 3625 13FF F0E4 DCD6 CEC7 BFB7  YTKB6%..........
000719DC B1AD AAAB B0B8 C4D7 EE01 0F17 1E25 2928  .............%)(
000719EC 2B35 404A 5156 574F 473D 301F 0CFA EDE1  +5@JQVWOG=0.....
000719FC DAD4 CDC5 BCB6 B0AD ACAE B4BC CBE1 F608  ................
00071A0C 1319 2228 2827 2B36 414A 5155 544B 4238  .."(('+6AJQUTKB8
00071A1C 2918 06F7 EAE0 DAD2 CBC2 BAB4 B1AE AEB1  )...............
>m
00071A2C B7C2 D4EB FF0D 151D 2628 2626 2C36 3F49  ........&(&&,6?I
00071A3C 4F54 4F48 3E32 2211 00F4 E7DD D7D0 C8BF  OTOH>2".........
00071A4C B7B2 AFAE AFB3 BBC8 DDF5 0611 1A22 2728  ............."'(
00071A5C 2627 2C34 3E47 5051 4C44 392D 1D0B FDF1  &',4>GPQLD9-....
00071A6C E4DC D5CE C5BD B6B2 AFB0 B1B6 C1D1 E8FD  ................
00071A7C 0C15 1F26 2828 2727 2B33 3C46 4E4E 4840  ...&((''+3<FNNH@
00071A8C 3426 1706 FAEE E2DA D3CB C3BB B5B1 AFB1  4&..............
00071A9C B4BB C7DB F204 101B 2326 2727 2827 2A31  ........#&''('*1
00071AAC 3B45 4C4A 443B 2F21 1103 F8EB E0D8 D1C8  ;ELJD;/!........
00071ABC C1BA B4B0 B0B2 B6C0 D1E5 F909 151F 2627  ..............&'
00071ACC 2729 2826 292F 3A45 4945 4036 291C 0D01  ')(&)/:EIE@6)...
00071ADC F5E9 DFD7 CFC7 BFBA B3B1 B3B5 BBC7 D9EE  ................
00071AEC 000F 1B22 2626 2728 2624 262E 3942 4441  ..."&&'(&$&.9BDA
00071AFC 3930 2416 0AFE F3E8 DED5 CCC6 C0B9 B4B4  90$.............
00071B0C B6B9 C0CF E2F4 0614 1E24 2626 2929 2624  .........$&&))&$
00071B1C 262D 383F 403B 352C 2014 08FD F1E7 DCD3  &-8?@;5, .......
00071B2C CBC6 C0B9 B4B6 B8BC C7D7 EAFB 0C18 2124  ..............!$
00071B3C 2527 2928 2422 242C 353B 3935 2F26 1B11  %')($"$,5;95/&..
00071B4C 04FA EFE5 DAD1 CAC5 BFB8 B7B7 BAC1 CEDE  ................
00071B5C F000 101C 2123 2528 2927 2422 252C 3436  ....!#%()'$"%,46


>m
00071B6C 3531 2A21 180E 02F9 EEE3 D9D0 CBC6 BFBB  51*!............
00071B7C B9BA BEC8 D6E5 F606 141C 2123 2729 2826  ..........!#')(&
00071B8C 2322 242A 3032 312C 251E 140A FFF5 EADF  #"$*021,%.......
00071B9C D5CF CAC4 BFBC BBBD C3CF DDED FD0C 181E  ................
00071BAC 2124 2829 2825 2222 2429 2D2D 2C27 211A  !$()(%""$)--,'!.
00071BBC 1107 FDF3 E7DC D5CF CAC4 C0BE BEC1 CAD6  ................
00071BCC E4F4 0411 1A1F 2125 2828 2725 2222 2326  ......!%(('%""#&
00071BDC 2928 2622 1C16 0E04 FAF0 E4DA D3CE C9C3  )(&"............
00071BEC C0BF C0C6 CFDC EBFB 0A14 1B1F 2326 2829  ............#&()
00071BFC 2725 2221 2224 2423 211D 1813 0A01 F8EC  '%"!"$$#!.......
00071C0C E1D9 D3CE C9C5 C3C2 C5CB D6E4 F302 0E17  ................
00071C1C 1D21 2428 2828 2623 2221 2020 201F 1C19  .!$(((&#"!   ...
00071C2C 160F 08FE F4E8 DED7 D1CD C8C6 C4C5 C9D1  ................
00071C3C DCEA FA07 1018 1D22 2427 2827 2523 201F  ......."$'('%# .
00071C4C 1E1D 1B1A 1816 120C 04FA F0E5 DCD7 D1CC  ................
00071C5C C9C6 C7C9 CED7 E3F2 010C 151A 2024 2729  ............ $')
00071C6C 2928 2522 1F1E 1C19 1717 1513 0F09 



; Sample 07
sample_file_07
                ; --------------------- Sound Sample 7 -------------------
                ; Start Address: $00071C7A
                ; Name:          KIT-HIHAT-C4
>m 00071C7A
00071C7A 464F 524D 0000 02B6 3853 5658 5648 4452  FORM....8SVXVHDR
00071C8A 0000 0014 0000 0256 0000 0000 0000 0020  .......V.......
00071C9A 4F72 0100 0001 0000 4E41 4D45 0000 0014  Or......NAME....
00071CAA 4B49 542D 4849 4841 542D 4334 0000 0000  KIT-HIHAT-C4....
00071CBA 0000 0000 414E 4E4F 0000 0014 4175 6469  ....ANNO....Audi
00071CCA 6F20 4D61 7374 6572 2049 4900 0000 0000  o Master II.....
00071CDA 424F 4459 0000 0256 FFFF FFFF FBEF DEEB  BODY...V........
00071CEA 1406 EC03 0EFA 030B FBF7 F5F7 0D06 EE01  ................
00071CFA 15F4 EC1B 10F1 07FC E910 07E3 0303 F31A  ................
00071D0A 15EF 02FF E707 2608 F4F9 EAFF 0DEF 0D1F  ......&.........
00071D1A F2FB 15ED ED02 EEFE 1F02 EA04 01FF 10F8  ................
00071D2A FB11 F7F7 1AFE E50F 17EE 0014 F0EF 1806  ................
00071D3A EC04 0DF9 04F9 F0FE 0312 03F0 020D 05F4  ................
00071D4A FA09 EEEE 0F01 FA08 FEF9 0407 FEF6 F60B  ................
00071D5A 15FC F2FF EFF6 0FF5 FA16 FAFF 16F3 EB0D  ................
00071D6A 02F2 0F0D F100 05F1 FDFE F312 0BEC FF02  ................
00071D7A F102 0DFB F307 06F1 FA0C F8F9 09F8 F7FE  ................
00071D8A F908 09FB FFFD F505 07F7 FB01 FA04 07F5  ................
00071D9A 0205 F705 0AF9 FA06 FFFA 00FF F6FD 04F8  ................
00071DAA FB04 FE03 01F7 0203 F6FA 0704 FB00 FDF7  ................

>m
00071DBA 0303 FB06 06FB FDFB FD03 FAFC 04FB 0107  ................
00071DCA FBFA 03FF FC02 00FF 01FB FD06 00F9 0104  ................
00071DDA FE00 00FC 0003 FDFE 03FE FC02 FFFE 0400  ................
00071DEA FC02 01FB FF05 02FC FFFD FE05 03FE FDFD  ................
00071DFA 0203 FCFD 0200 FF01 01FD FF02 FFFE 0200  ................
00071E0A FDFE FE01 FFFC 0302 FD01 02FD FE03 00FF  ................
00071E1A 01FF FF01 FEFF 0200 0102 FEFF 01FF FEFF  ................
00071E2A 0100 FF02 01FF 0000 0000 0000 FF01 0100  ................
00071E3A FFFE 0001 FFFF 0101 01FE FF01 00FE FF01  ................
00071E4A 00FF 0100 FE00 00FF 0000 0101 FEFF 0100  ................
00071E5A FF00 0000 0000 0000 0000 0000 0000 0000  ................
00071E6A 0000 0000 0000 0000 0000 0000 0000 0000  ................
00071E7A 0000 0000 0000 0000 0000 0000 0000 0000  ................
00071E8A 0000 0000 0000 0000 0000 0000 0000 0000  ................
00071E9A 0000 0000 0000 0000 0000 0000 0000 0000  ................
00071EAA 0000 0000 0000 0000 0000 0000 0000 0000  ................
00071EBA 0000 0000 0000 0000 0000 0000 0000 0000  ................
00071ECA 0000 0000 0000 0000 0000 0000 0000 0000  ................
00071EDA 0000 0000 0000 0000 0000 0000 0000 0000  ................
00071EEA 0000 0000 0000 0000 0000 0000 0000 0000  ................
>m
00071EFA 0000 0000 0000 0000 0000 0000 0000 0000  ................
00071F0A 0000 0000 0000 0000 0000 0000 0000 0000  ................
00071F1A 0000 0000 0000 0000 0000 0000 0000 0000  ................
00071F2A 0000 0000 0000 0000 0000 0000 0000 



; Sample 08
sample_file_08
                ; --------------------- Sound Sample 8 -------------------
                ; Start Address: $00071F38
                ; Name:          KIT-OPENHAT-D4
>m 00071F38
00071F38 464F 524D 0000 0BFE 3853 5658 5648 4452  FORM....8SVXVHDR
00071F48 0000 0014 0000 0B9E 0000 0000 0000 0020  ...............
00071F58 4F72 0100 0001 0000 4E41 4D45 0000 0014  Or......NAME....
00071F68 4B49 542D 4F50 454E 4841 542D 4434 0000  KIT-OPENHAT-D4..
00071F78 0000 0000 414E 4E4F 0000 0014 4175 6469  ....ANNO....Audi
00071F88 6F20 4D61 7374 6572 2049 4900 0000 0000  o Master II.....
00071F98 424F 4459 0000 0B9E FEFE FEFE FFFF FFFF  BODY............
00071FA8 FFFF FFFF FEFF FFFF FEFF 0101 FDFC FB04  ................
00071FB8 FFF6 0106 FAF9 0DFE FC05 FCF3 07FA EF0B  ................
00071FC8 FB06 05F9 FEF5 040A F90E FCFC 09EC 0800  ................
00071FD8 F818 05EB 02FD EB04 F300 1106 06F2 1309  ................
00071FE8 FD03 F5FC FF03 01FF 00FD FCFA EF09 06FD  ................
00071FF8 04F1 1003 0615 FBFB F6F8 1011 FAFA FF00  ................
00072008 0905 EB05 0CF9 0EF9 FE10 01F7 FA0E FBF5  ................
00072018 0CFE F309 04F6 110C F810 FCF6 02F1 FF13  ................
00072028 FF01 F5F8 1202 F103 0306 F9F3 0BF6 0C19  ................
00072038 0000 FA01 0701 0404 FE06 02F3 070A EB04  ................
00072048 08F4 1100 FD0E F901 FE07 14F7 FDF7 011B  ................
00072058 01FA 0B0D FDFB FFFC 0BF8 FF0D F80B 06F3  ................
00072068 F308 0CF6 06FC 020A FE01 F608 03FC 11F3  ................

>m
00072078 F80D FBFE 0B05 FFF8 FA02 0801 07FA 0505  ................
00072088 F90E FFF4 0403 0708 F70B 01F6 0CFF F2F4  ................
00072098 0BFA 040B F307 FB0C 08FF 0EEE FA08 F310  ................
000720A8 11FE 08F8 0406 F60D 05FB 0DFC F606 F804  ................
000720B8 0E02 0AFF F4FC 0AF9 FC02 FBFA 11FD F50E  ................
000720C8 F500 0CF6 FB0B FBFA 1102 FB08 FEEE 040C  ................
000720D8 F306 FAF9 1601 0504 F402 FC02 06F6 040D  ................
000720E8 02FA F105 F903 F900 15FD 0600 F7FC 0004  ................
000720F8 F9FF 05F3 0F04 F70F 00F2 0206 EEFF 03FD  ................
00072108 0EFD 02FF FD07 FF05 FAF9 12FD F8FB F10D  ................
00072118 03F3 05FE 0302 03F6 030D FAF2 F710 F803  ................
00072128 02F8 07F3 0308 0408 EF01 04F9 01FB 05FE  ................
00072138 0311 F807 FDF3 FEF4 1107 FB08 F6FB FFFA  ................
00072148 00FD 04FB F709 FF07 02F1 F002 03F3 05F8  ................
00072158 FF0C 03F9 FA09 FCFB 05FC F7FE 08F7 0503  ................
00072168 F3F5 0804 FE09 FDFB 04F5 FE06 FB09 FBFE  ................
00072178 06FF FEF2 0702 F80B FBF0 0406 FA09 FEFE  ................
00072188 0AFD F201 05FA F9F7 01F5 F708 F60E 0200  ................
00072198 0CF3 F9F4 050B F6FD FCF6 0803 FDFC 00FC  ................
000721A8 06FC F90A F7F5 0A04 F100 10FB FF05 F602  ................
>m
000721B8 FDF3 0407 FDF8 07FA F90D F701 03F5 06FF  ................
000721C8 FF07 FFF3 F00C 08FB FAFD 0B02 F602 04FF  ................
000721D8 FE04 FDF8 09FB F5F4 0804 F207 F7FE 0FFB  ................
000721E8 05FC FA01 F70D FBF9 09F7 030B FFF9 FF07  ................
000721F8 04F7 FB09 FEFD F306 05F9 0DFD FF08 FEF4  ................
00072208 FE04 F304 01F1 FD0B FB06 04F3 0502 F9F5  ................
00072218 0501 F804 FEFC 01FF FB09 0CF6 03FC F70A  ................
00072228 FB07 FCF7 08F7 0902 0204 EF08 08FF F9F1  ................
00072238 0906 F90C F9FC 0DF7 0204 F505 08FC 010A  ................
00072248 FDF9 040A FB00 07F3 01FD 000A FA08 FBFB  ................
00072258 02FB 05FE F507 0700 F5FB 03FB 05F6 0806  ................
00072268 FA09 FEF6 F708 01FE 09F8 0208 FC02 FEFF  ................
00072278 0103 00F2 0303 FC0A FB07 FEF7 07FC 06FB  ................
00072288 0007 F207 0901 09F2 FB01 F90D 0200 FCFC  ................
00072298 04FD F203 0DFE 08F8 FB04 FA00 0307 FEF7  ................
000722A8 0604 F701 0AFB 0307 F601 03F5 0602 FB0C  ................
000722B8 FEF8 FB0A 0003 05F4 0605 FAF5 0606 000D  ................
000722C8 F9F6 08F8 FA06 F706 0B03 FAFA 0CFF FE03  ................
000722D8 F7F9 FC0F 06FB 09F5 0005 F906 0601 F905  ................
000722E8 02FE 0302 06F9 0002 00FD F307 FEFA 0AF7  ................

>m
000722F8 F206 03FC 0DFF 020A F9F6 0604 FBF7 FC09  ................
00072308 F802 01FC 0EFA 0504 F308 FCFE 09FD FBF2  ................
00072318 020E 04FB F607 0009 FDF8 07F8 090E FAFB  ................
00072328 0101 0102 FBFC 08FE F607 02FC 0001 FAFD  ................
00072338 1002 0002 F605 FFF9 0C01 F908 FCF8 FEFA  ................
00072348 0B0A 00F8 FF06 0002 02FB FAFB 0C04 FB09  ................
00072358 F4FA 08FB 0604 FE03 0004 F902 07F3 0104  ................
00072368 F706 05FA 0005 FE07 FAF7 0AFB 03FF FD07  ................
00072378 F909 FFFD 09F9 FA04 F9FE 00FB 02FA 07FF  ................
00072388 00FC 0207 0205 F4FF 0AFB FFFD F603 0EFF  ................
00072398 FE08 FE02 0203 01FE 09F8 FD04 F60A 0402  ................
000723A8 03F1 0604 FAF6 FA0D FC03 08F6 0209 F803  ................
000723B8 00F6 0109 FCF9 0803 02FE F9F8 020D FC02  ................
000723C8 FAFD 0EFB 0404 F404 FD03 0AFB 06FF 01FF  ................
000723D8 F70C 04F9 FE04 FA00 00FF F8F7 0AF7 FE03  ................
000723E8 FA09 00F6 FA0A FEFC 07F7 F808 FE02 0802  ................
000723F8 08F8 FF07 FE01 F401 0AF5 030A FE07 01F3  ................
00072408 0008 FD03 FBFE 0B01 02F9 0508 F90B 01F7  ................
00072418 02FE FBFF 07FE FE0A FBFB 0900 FF06 FBFD  ................
00072428 F901 0CFD 02FE FC05 F901 09FD 06FC F709  ................
>m
00072438 00FB FFFF 09FD 0007 FC0B FEF6 FBFC FF02  ................
00072448 07F8 050B FEFF F9FA 01F9 0B08 FA08 F8FE  ................
00072458 00FA 0605 FDFC 05F8 FD03 F908 FC01 05F9  ................
00072468 FDF9 050B FE05 FBF4 08FE FD0C FA03 09F5  ................
00072478 FB05 FEF8 0204 FDFD F70A 0CF4 FA02 FFFC  ................
00072488 02FF 0103 FDFC 0008 FC03 FAF4 04FE 0200  ................
00072498 FEFA FF02 FFFE F50C 08FD 0AF7 F406 FEFA  ................
000724A8 0802 FA05 06FA FD0A FDF8 FF03 0002 F902  ................
000724B8 0AFC 0008 F5FB 06FB 0400 F807 0001 02FA  ................
000724C8 FE02 FE07 FCF9 09FB FF04 FA02 FF03 FD01  ................
000724D8 08FD FCFE FBFF 08F9 FE04 F8FD 08FE 0501  ................
000724E8 FA05 FB03 0001 0400 0AFA 0505 F9FC 01FC  ................
000724F8 0000 05FC F704 F805 04FA 0701 F9FD 0504  ................
00072508 FBF6 0202 FC02 FEFF 02FF 06FC F507 04F9  ................
00072518 0503 F703 04FC 05FC F404 08F8 FA09 FFFF  ................
00072528 0AFB F404 06F9 04FC FC0A FCFE 09FC 0500  ................
00072538 FC03 FD0B FDF8 01F6 0B07 FA08 FDF7 0000  ................
00072548 01FC F90B 00FD FCF7 0A07 FDFA 0005 FF04  ................
00072558 FEF2 0006 FB0B 02FB 0A01 F9FB 0407 0006  ................
00072568 F8FF 08FA 0700 F907 00F5 04FF F80D 03FA  ................

>m
00072578 FCFF FF01 09F8 FE06 FA00 05FD 0804 FB04  ................
00072588 F703 03FA 07F8 FFFF FA0C FE03 00F5 06FC  ................
00072598 030A FA05 FFF8 06FA FE0C FC02 03F8 01FB  ................
000725A8 FFF8 FB0A F9F6 0701 0008 FA03 04FC 00FC  ................
000725B8 0A01 F904 FDFD 04FE 04FF FD05 F900 FD01  ................
000725C8 0AF8 0602 FD0C FAFD 03FB 05FB FF04 F805  ................
000725D8 FD01 0AFA 0207 F9F8 FE02 FF02 01F8 FB0B  ................
000725E8 01FB FB00 0C02 FAFA FB0B 04FD 06F8 0204  ................
000725F8 0104 F200 05F7 0106 FB02 FCFE 00F7 0B04  ................
00072608 FE09 F7F8 07FC FE06 FC02 02FC F9FE 0F00  ................
00072618 0101 F709 FFFB 02FE 05FE 0202 F806 FCFE  ................
00072628 04F9 0807 FB04 01F6 FF02 FDFA 0305 F604  ................
00072638 FFFA 0B03 FCFD FE01 0202 FFF8 FD0B FAFD  ................
00072648 02FB 0502 FFFE 0305 FB00 01F7 00FB 0009  ................
00072658 FC04 05F7 01FE FB0B 0200 F9FC 06F8 0801  ................
00072668 FB0A 00FA FDFF FA01 0DFE F803 02FF 03FB  ................
00072678 FC08 FFF8 0001 0701 F9F9 0006 FE05 06F6  ................
00072688 0100 FA07 0203 04FE FDF8 0309 FD03 FDFC  ................
00072698 0500 F7FB 0702 FEFC FBFB 0809 FB04 FD02  ................
000726A8 08FE FF03 0301 FA04 03FE 06F7 FFFF FE0D  ................
>m
000726B8 FEFC 06FB FAFE FE00 FBFF 0A02 FFFB F808  ................
000726C8 FDFD 0701 FAFF 04FC F600 0BFB FC01 FE07  ................
000726D8 FDFD 01FA 0500 00F8 0008 FC07 01FD 06FA  ................
000726E8 FB04 F9FF 0AFF 01FC FD02 FF0A FAFC 06FD  ................
000726F8 07FF 0008 FEFE F6F9 0C07 FB01 03FC 0206  ................
00072708 F9FA 04FC FB02 F905 04F7 0501 F803 FCFB  ................
00072718 0900 05FF FA04 FD09 FFFB 06F6 0308 FA00  ................
00072728 05FA FF01 FC00 FD03 02FD FFF9 FF08 FC02  ................
00072738 FBFF 02F6 08FF 0005 F602 FE03 08F9 0202  ................
00072748 FC05 FB04 FFF6 05FB 010B FCFF 0AFF FA04  ................
00072758 FFFC 01FD FAFC 09FE FC07 0405 FCF6 0501  ................
00072768 0706 FE05 FB06 0501 06F7 0304 F704 03FF  ................
00072778 08FB FE01 FE0A FF01 02F5 0302 FB08 01FE  ................
00072788 02FD FDF7 000C FE02 F8FC 0BFE 0001 FA02  ................
00072798 0AFD F8FA 0000 08FF FD0B 02FA 0402 F906  ................
000727A8 02FB FDFD 05FA 0103 FB0A 0101 04F6 FEFB  ................
000727B8 0306 F604 05F9 0402 FA03 03FE FF01 0A01  ................
000727C8 FAFA FE0B FE06 08FA 0500 F804 FFFD 08FE  ................
000727D8 FDFB 0504 FE09 FC01 02F7 0702 FD05 FD00  ................
000727E8 00FD FF02 0200 FEFE 0AFE F801 0404 F500  ................

>m
000727F8 03F6 0206 FD03 FD02 04FB 0B04 03FE FC00  ................
00072808 FA06 FFFE 03F7 0708 FF02 FBFF 00FD 0902  ................
00072818 FD06 FCFF 03FE 0A00 FC05 FA01 02FC 00FA  ................
00072828 0706 FBFE FB02 0C02 FC07 F9F6 0405 F8FD  ................
00072838 0401 0301 F900 08FD FE02 0104 FA01 00FA  ................
00072848 03F8 0507 FB09 00F6 00FD 0405 FDFF F702  ................
00072858 04FB 07FE F802 02FA 05FC FC06 03FC FF07  ................
00072868 0004 04F7 0302 FE05 0103 FB00 04F8 0404  ................
00072878 FC08 FFFC 03FE 02FE FC01 04FE FFFD FD00  ................
00072888 FF08 01FA 05FA 0108 FA04 00FD 00FF 01FE  ................
00072898 0001 FE04 00FF FFFC 0101 FF02 FE02 01FB  ................
000728A8 02FF 0005 0001 00FB 02FF FF05 0003 01FE  ................
000728B8 03FF 0103 FCFF 02FD 0001 FD01 02FF 0002  ................
000728C8 FFFD 0201 FE00 02FE 0102 FDFD 0102 0002  ................
000728D8 FCFF 02FC 0001 0004 FF00 00FE 0300 00FF  ................
000728E8 FC03 00FD 0300 FF03 0000 00FF 0400 0100  ................
000728F8 FC00 0000 0100 0000 00FF FD03 0400 0100  ................
00072908 0201 FF00 FE00 0200 01FE 0003 FD00 02FE  ................
00072918 0001 FF02 00FC 02FF 0000 FF04 0000 00FD  ................
00072928 0400 0101 FD03 0000 01FD 0200 FF01 FE01  ................
>m
00072938 FE00 00FD 0400 FF02 FEFE 00FF 0200 FF02  ................
00072948 FEFE 01FF 0204 0000 FE01 00FE 0500 0002  ................
00072958 FC00 01FF 0200 0000 FD01 02FF 0101 0002  ................
00072968 FF01 0001 01FC 0100 0003 FF02 FEFE 02FE  ................
00072978 0003 0000 FF00 FFFF 04FF 0001 FD00 03FE  ................
00072988 0003 0000 00FE 00FF 0000 0002 FF03 00FE  ................
00072998 02FE 0000 0002 FF01 FF00 00FE 0200 FEFE  ................
000729A8 FE00 0100 00FF FE03 0000 02FE 0100 FD01  ................
000729B8 00FE 0200 02FF FF02 FE02 01FE 0300 FE00  ................
000729C8 FE02 03FF FE00 0400 0100 FE02 00FF 0001  ................
000729D8 FE01 0400 FEFF 01FF 0201 FD00 0001 01FD  ................
000729E8 0002 FE00 FF00 0400 0100 FD00 01FF 0000  ................
000729F8 0100 FDFE FF01 0001 00FE 0200 FE01 01FF  ................
00072A08 FFFF 0200 0000 FD01 FF00 0400 0000 FF02  ................
00072A18 FFFE 0300 0001 FD00 00FF 0400 FF01 0000  ................
00072A28 0000 02FF 0100 FE01 0001 FFFE 0000 FE00  ................
00072A38 01FF FE01 0000 02FF FF02 00FE 00FE 0102  ................
00072A48 0000 FD00 01FE 0101 0000 FE00 FF00 01FE  ................
00072A58 0000 0003 0000 FEFF 0100 00FE 00FF 0002  ................
00072A68 FF00 0100 FF01 FFFE 0100 FF02 0000 01FF  ................

>m
00072A78 FEFE 0202 FF02 FF00 01FF 0200 FF01 FF00  ................
00072A88 FFFF 0201 00FE 0001 0000 0200 0001 0000  ................
00072A98 0000 00FF 0200 0002 0000 00FF 0000 0000  ................
00072AA8 FF01 00FF 00FF 0001 0000 0000 0100 0000  ................
00072AB8 0001 0001 00FF 0100 FF00 FF00 0200 FF00  ................
00072AC8 0200 0002 FE00 00FF 0000 FF01 0000 00FF  ................
00072AD8 0101 00FF FF02 00FF 0100 0000 FE00 0000  ................
00072AE8 0100 01FE 0001 FF00 0200 00FF FF00 0001  ................
00072AF8 FEFF 0100 0001 FF00 01FF 0000 FFFF FF02  ................
00072B08 00FF 0100 0100 FF01 FE00 00FF 0100 0000  ................
00072B18 FF00 FF01 00FE 0000 FF00 0000 0000 01FF  ................
00072B28 0100 FF01 00FF 00FF 0002 0000 0000 0000  ................
00072B38 0000 0002 00FF 


; Sample 09
sample_file_09
                ; --------------------- Sound Sample 9 -------------------
                ; Start Address: $00072B3E
                ; Name:         BATMOBILE.......       
>m 00072B3E
00072B3E 464F 524D 0000 1154 3853 5658 5648 4452  FORM...T8SVXVHDR
00072B4E 0000 0014 0000 0004 0000 10F0 0000 0020  ...............
00072B5E 20AB 0100 0001 0000 4E41 4D45 0000 0014   .......NAME....
00072B6E 4241 544D 4F42 494C 4500 0000 0000 0000  BATMOBILE.......
00072B7E 0000 0000 414E 4E4F 0000 0014 4175 6469  ....ANNO....Audi
00072B8E 6F20 4D61 7374 6572 2049 4900 0000 0000  o Master II.....
00072B9E 424F 4459 0000 10F4 0BFA 2C1F 2040 2B5D  BODY......,. @+]
00072BAE 5F63 22F9 F4FE D8A5 A7E7 D3FC 0127 21FE  _c"..........'!.
00072BBE D5DD E2B5 AC9A 9983 8E88 81A7 E1D8 EE1F  ................
00072BCE 5361 6361 7171 5450 5E3F 1810 3329 13F7  SacaqqTP^?..3)..
00072BDE 06F2 E4F3 FE0D 3F57 5734 0F0D F4EB E1E7  ......?WW4......
00072BEE F5E0 CED9 D3C2 B3CB CAC4 CEEE FBF3 E8EB  ................
00072BFE DED4 EA1E 2628 3932 1506 0B0D 18FE 0807  ....&(92........
00072C0E F1EB F2FA 0514 1A35 4455 6253 3109 DAD7  .......5DUbS1...
00072C1E D8D4 C9D9 D7C7 C7E7 E900 06F6 F8E5 E3E7  ................
00072C2E F1D5 D5EF 0007 E7E4 F80C 1313 040C EFFB  ................
00072C3E 081C 1B1E 1D2B 4A50 6E67 5134 373D 2A37  .....+JPngQ47=*7
00072C4E 4137 2E0A F9DC 9E8D 8A81 8181 828D ACAD  A7..............
00072C5E C6CA C3DE 000F 254B 5672 5436 1CFC E2BE  ......%KVrT6....
00072C6E CEDB F209 1D0C 143C 545D 321F 2322 4653  .......<T]2.#"FS
>m
00072C7E 6C50 5B44 3922 0B03 F8D5 DBDE C0B6 B5A4  lP[D9"..........
00072C8E A097 9CB8 A8BB C6C5 D6F6 1005 150F 321C  ..............2.
00072C9E 2E17 FDF4 FA0F FBFE 0B0D 1529 2823 1D11  ...........)(#..
00072CAE 121D 0BF6 0E1D 04EE F4F5 EFFE FE07 071E  ................
00072CBE 1C1B 1116 FAE8 D3DB D4C2 B5B7 CBAF 999F  ................
00072CCE B6C4 D1EA 0314 0D0B 192B 445E 7A7F 7F7F  .........+D^z...
00072CDE 7F63 4A3F 3420 1611 04F7 FD10 1806 EDCF  .cJ?4 ..........
00072CEE DDF0 FE05 151D 2A25 11ED CAA9 9081 8281  ......*%........
00072CFE 8181 85A8 B0CC E0FA 010E FFF0 E5F5 0B19  ................
00072D0E 1C08 071B 2D4D 4F5A 4757 5F58 524C 615A  ....-MOZGW_XRLaZ
00072D1E 3210 F4C9 B1BA CCE6 F7E5 E8FB FBED E2E7  2...............
00072D2E E5F3 FE26 353C 300D 0719 02C0 8D9F C3E2  ...&5<0.........
00072D3E D1CA C9EC 01F2 E5EE F9FF F909 3338 3B51  ............38;Q
00072D4E 5572 7F7C 7F7F 7F62 27FA B98C 8083 8DC7  Ur.|...b'.......
00072D5E E0D9 C4F1 F8D1 C5C6 B9A2 8EAF B8D7 DFCA  ................
00072D6E DB0A FDF1 FF2C 14FC 1903 FCEF F2CC E5FA  .....,..........
00072D7E 082A 3E51 6A7D 7F7D 7F75 7F6F 4D5E 594A  .*>Qj}.}.u.oM^YJ
00072D8E 4238 0BEF E8BF C299 9795 B6BA C0D5 BDC6  B8..............
00072D9E BDAE 9581 88AF C2B3 B6ED 00F8 031E 465C  ..............F\
00072DAE 4E43 3A2C 19FC EED8 DDE4 FA00 0D2A 4B59  NC:,.........*KY

>m
00072DBE 635D 5A67 6655 5546 3425 0AF6 1D09 DCD5  c]ZgfUUF4%......
00072DCE AE90 8998 9882 9DA8 C900 0C1B 1906 1B14  ................
00072DDE FDE4 E3DC D4E0 CFE5 D8C2 D5EB 0830 6563  .............0ec
00072DEE 767F 6451 2B28 2737 2C15 1E1F 16E3 B9C6  v.dQ+('7,.......
00072DFE D4F0 F7ED FD00 FBEB D7C2 9A84 838C 8A85  ................
00072E0E 8198 C7FA DBFA 1D15 1518 292C 454C 706C  ..........),ELpl
00072E1E 7B7F 7778 7F7F 7B67 6F7B 4D2B 0AFE E9DC  {.wx..{go{M+....
00072E2E C9B1 AEAF D8D9 DED8 DFFC E6EC F719 1131  ...............1
00072E3E 360D DFC6 A387 8081 8181 8181 81A9 FA2E  6...............
00072E4E 4236 15FB 1535 515B 594F 342C 4751 4B62  B6...5Q[YO4,GQKb
00072E5E 7F7F 7F67 4242 27EE BEB7 C5C0 CCCD CCE4  ...gBB'.........
00072E6E D8D7 C8DC D0F2 BBD3 EAE2 B6AE B2D8 ECDA  ................
00072E7E C4DE DCE2 E3E9 FF16 08E7 F70B F501 1041  ...............A
00072E8E 616C 687F 7F69 583D 2D4C 5145 2510 F2DF  alh..iX=-LQE%...
00072E9E C5B5 AA92 8084 B9E5 DFE5 F4F2 E9E3 DBD9  ................
00072EAE E4F1 0704 060B 111B 1900 F0EB D0C8 DDE2  ................
00072EBE E1F4 2146 5965 7676 6C6F 7676 6046 3F1C  ..!FYevvlovv`F?.
00072ECE F8E5 DBB8 99AA C3E2 F4F9 FB0B FBDD C8BF  ................
00072EDE B4A7 A7B2 C9CD CEB4 A8A3 ACBA D5F2 0513  ................
00072EEE 1428 4A4E 2D31 494F 473E 1BF9 E9F2 FFF8  .(JN-1IOG>......
>m
00072EFE 0A31 4651 637F 7370 4228 11FD 0D1C 2415  .1FQc.spB(....$.
00072F0E 2430 FCE0 ACB3 B385 8081 8181 8181 8181  $0..............
00072F1E 9DB5 BFF0 1E41 3756 787F 7F7F 7F7F 6D31  .....A7Vx.....m1
00072F2E 21EF D5B0 D3F5 000F 1815 1F1C 0EFA F616  !...............
00072F3E 2734 3232 340C ECCD BCAD 96A5 AEB9 CEF9  '4224...........
00072F4E DD86 8181 8193 BBDB D7E9 1D3A 3930 3648  ...........:906H
00072F5E 6561 504E 6263 3639 4D46 3F28 2D3F 3D39  eaPNbc69MF?(-?=9
00072F6E 230C E7E7 E0C8 DEFB F3C4 CDEE 1C00 EAE0  #...............
00072F7E D1B2 A7A0 9FA3 818B B3CC C9DD EAF1 EEE6  ................
00072F8E F5E9 FA0A 2738 3A4B 5455 4F3D 5B7A 7F7D  ....'8:KTUO=[z.}
00072F9E 5E51 3600 E4EF 02D9 F6E8 CBD1 FE1C 08E5  ^Q6.............
00072FAE E2E8 1E0E 3532 271E 18EC BA86 8AB4 AA85  ....52'.........
00072FBE A0E2 EB15 434A 5E77 7651 0AFE 0104 D1B6  ....CJ^wvQ......
00072FCE BCD6 C3B0 A4B4 E4FC 2C54 5648 5934 0FDC  ........,TVHY4..
00072FDE BC9C ABB1 ADC0 D2DD E9FC 091E F3FA E314  ................
00072FEE 142D 3025 2E35 292B 1D0D 2F22 161E 1E39  .-0%.5)+../"...9
00072FFE 3824 1A05 F1F3 EDD1 F602 1110 ECE1 F3F7  8$..............
0007300E 0AFD 1045 5E7F 7F7F 4EFF DBBA 8C80 8181  ...E^...N.......
0007301E 8FB7 94B0 A8BD B89E B5C1 FD26 4252 645B  ...........&BRd[
0007302E 5A4C 26EA 0F03 FF19 14EF FA1C 07E4 DDED  ZL&.............

>m
0007303E 021B 1305 000E 151C 2F2E 2831 222E 1D1C  ......../.(1"...
0007304E 100A 1E20 EDD1 F0FB ECE3 D8D5 E6ED DDF2  ... ............
0007305E E1AB 8280 95C7 E6F4 1227 372D 2D2B 2819  .........'7--+(.
0007306E 1215 1A06 D2CA E0F0 FA0F 294D 5D5B 5249  ..........)M][RI
0007307E 4228 13FE F5EE F705 0604 0CFC FEE4 C2AC  B(..............
0007308E C8C9 C0CD C99D AEB5 C3F0 080D 143C 5C5B  .............<\[
0007309E 654B 4C2E 271B F7ED 0305 E1CA DCE7 FC03  eKL.'...........
000730AE FF35 4C4A 4138 2B12 EEC3 9EC1 C4A2 85A0  .5LJA8+.........
000730BE ADC3 D500 02F7 F515 111B 1B2F 200B FAD9  .........../ ...
000730CE BBB4 DC03 0412 404B 3D20 1501 1C17 3853  ......@K= ....8S
000730DE 687F 7F7F 5E54 2B1B E705 272B 24F8 E8EE  h...^T+...'+$...
000730EE B888 84A0 98A0 9EA5 B5B8 E4DF D6EE 0904  ................
000730FE 1137 5321 F3ED F5C3 8A80 9EC1 E6FC 0D17  .7S!............
0007310E 0C0A 0203 192F 494B 6B7C 7E74 7079 7136  ...../IKk|~tpyq6
0007311E 3C10 08EC C9B0 8081 8182 99B7 F1FD 190A  <...............
0007312E EEDC FCF5 000A F3ED 0AD0 DBFB F8EB DC05  ................
0007313E 0C1A 293B 585C 4332 293C 4E38 16FF FFFC  ..);X\C2)<N8....
0007314E F0DE F21F 1007 2048 3C17 04FE F6E3 CFC9  ...... H<.......
0007315E C3C6 C1BF B3AC ACAB AFCD 0024 1115 3F40  ...........$..?@
0007316E DCB8 BDFE 1B23 3247 412C 3535 F1EF FBF4  .....#2GA,55....
>m
0007317E F3F5 F012 2956 6965 5468 7F76 2D17 1E1B  ....)VieTh.v-...
0007318E F0CE BCB1 9F9A 9981 8083 95AE E409 0C1F  ................
0007319E 0CFE F8E1 CBBF CEE2 CFD5 E6DB C4BD E401  ................
000731AE 1D1C 1C13 262C 2518 0A3D 5256 2620 3E46  ....&,%..=RV& >F
000731BE 3D2D 3B3F 3447 5C63 45FF FBF3 E7EC FC05  =-;?4G\cE.......
000731CE 2F31 1918 1814 0DE5 B7AD A380 8081 8289  /1..............
000731DE 9CAA C80B 022B 3F4A 3035 5660 5838 272A  .....+?J05V`X8'*
000731EE 211D 02E5 C7B8 A9AB DCED FD10 F7EB EB16  !...............
000731FE FF03 0D20 294B 452D 1201 E0EA D6D1 D9BD  ... )KE-........
0007320E C5D6 FDEC C2BB CFB6 B3B9 BFC0 EF00 2327  ..............#'
0007321E 4851 5F57 776A 655C 5458 4335 2420 1F06  HQ_Wwje\TXC5$ ..
0007322E F402 111D 22FE E6BD ACBA CBD9 021E 393F  ....".........9?
0007323E 3D21 DFB0 9C80 8181 8081 99B7 C2D3 DAE5  =!..............
0007324E F10A 090B 2C40 4645 4459 5D57 5A65 4D36  ....,@FEDY]WZeM6
0007325E 4065 5C49 2F12 FDEF E3DE E2DC DDDA DBE7  @e\I/...........
0007326E 161E 01F8 090F 09FB 1101 FD17 11DE BBA6  ................
0007327E 9B81 8081 8181 A3C2 ED19 4B60 5437 1E1B  ..........K`T7..
0007328E 1A12 1D20 181C 1920 3135 3E55 687F 6864  ... ... 15>Uh.hd
0007329E 4F3E 2A02 C5B8 9191 8183 93CF E9F1 0103  O>*.............
000732AE E8D5 B8B4 BCA9 BADB F6FF 0713 1C2D 1E1C  .............-..


>m
000732BE 2F46 5B68 3814 FCEC B6C5 C2DE F214 3244  /F[h8.........2D
000732CE 5F72 786E 646E 6444 4D61 5838 04DB AC80  _rxndndDMaX8....
000732DE 8182 9EB5 C3D8 F5E2 C3BB B7B5 CDD7 E8D1  ................
000732EE FBFB F1F8 E6EC CFE5 D2F9 F0F8 1904 02E8  ................
000732FE E5DF D3ED 0323 3670 7D7B 7F7F 6F58 161A  .....#6p}{..oX..
0007330E 03FF E1F3 0A27 2E1D 03FD FADF B8AB B9BF  .....'..........
0007331E B0BA CFCE CFCD D1DE FA12 F6F3 F8F7 E6D4  ................
0007332E C9CC D0DC E7FC 0A05 F7FF 222C 2338 4B5D  ..........",#8K]
0007333E 6157 547F 7F7F 7F7A 725A 321B 0EF4 F3DA  aWT....zrZ2.....
0007334E ADB2 AA83 818E 9192 9BBE E4F2 F9FA F301  ................
0007335E F8DE D7D5 E7E3 E0D4 D7F5 E9DC E904 0D1E  ................
0007336E 3755 6761 5A38 2224 1A0A 0312 0A0A 1E19  7UgaZ8"$........
0007337E 3C2E 4F4C 422C 171F 04D1 C3B9 AEAC C5D2  <.OLB,..........
0007338E E6F4 C9AE 98BF B8B2 A8D7 E5F3 F6ED F810  ................
0007339E 11F9 0D1E 3E5A 565B 7F7F 7F71 5F42 10EE  ....>ZV[...q_B..
000733AE FBF0 CCB9 9988 99CE E6EA 0632 5662 726F  ...........2Vbro
000733BE 6335 F8C7 8C80 8181 81A4 ADB1 CADF E0E0  c5..............
000733CE D3E3 0904 122F 4140 3724 0F0F 1B1F 2E44  ...../A@7$.....D
000733DE 5C67 5431 14FA DDDE DDEF E9E0 FE23 341A  \gT1.........#4.
000733EE 1617 1921 243C 3C24 0AFE F8F2 D7BC A094  ...!$<<$........
>m
000733FE AFB6 A79E AABA C9BF D3E8 F1F7 FB0E 0924  ...............$
0007340E 4B64 563B 3B3F 2618 1201 FA05 16FC E5ED  KdV;;?&.........
0007341E EDEF 0712 3855 5D3D 03FE 1526 0F00 1141  ....8U]=...&...A
0007342E 4A26 2EFC 00F0 B2C1 998D 8181 8181 9BC4  J&..............
0007343E F72C 4F52 564F 6B5B 310F FCF0 2004 ECFA  .,ORVOk[1... ...
0007344E 01F9 F210 1C2A 2841 4C48 3E1D 01DF C0A5  .....*(ALH>.....
0007345E A0A0 B3A1 8E85 87AC CAD0 C5BB D7EF F502  ................
0007346E 0E13 0E1D F3E2 EA13 3548 4F55 6F76 6551  ........5HOUoveQ
0007347E 552F 2C26 0618 1722 1C2A 3A51 6269 7F7F  U/,&...".*:Qbi..
0007348E 7F7D 3EFB AE80 8080 8181 8181 8081 88AF  .}>.............
0007349E 8680 83AF E728 5C5F 5246 381E E7C0 A4AF  .....(\_RF8.....
000734AE E2FB EE06 306C 6D5D 5E47 737F 7F7F 7F7F  ....0lm]^Gs.....
000734BE 5E45 1CEF D6C7 BDCD EFCA BBB5 D6B0 8580  ^E..............
000734CE 8181 8184 A0C2 E901 EDF1 FFD8 D3EA F4F1  ................
000734DE 0BF2 0C24 3D39 2C3F 5B5B 4430 2E17 2111  ...$=9,?[[D0..!.
000734EE FFFE EAD2 DB32 5E5F 675C 451B F7DB DEFC  .....2^_g\E.....
000734FE FEFF 00F1 E3CC BE8B 8081 8181 9CBB E92A  ...............*
0007350E 6379 7A7C 6867 6064 5C4F 352A 06DE CC0A  cyz|hg`d\O5*....
0007351E DFEA DFDF DDDA E318 271A 16DD F911 F9FC  ........'.......
0007352E E2E1 E0BF CAA2 91AA AAA5 BABF C0E9 0420  ...............

>m
0007353E 3035 352A 0BEC BDB7 B3BA C2D8 C8D8 FA42  055*...........B
0007354E 5256 6D7D 7F7F 7F7F 6C6C 5443 EAE1 ECEE  RVm}....llTC....
0007355E 2754 4F20 08E8 D5D0 D0A9 ACA0 CFEB F5F7  'TO ............
0007356E E7C3 CAF1 1A0C 0D24 514D 02C2 918B 8181  .......$QM......
0007357E 8181 8184 A2D7 1333 3C49 727F 7F7F 7F7F  .......3<Ir.....
0007358E 6338 18E4 C0A7 B2D5 0413 1625 464A 4631  c8.........%FJF1
0007359E 2834 3726 03E2 D2CA DEDC D2D8 E3E3 D8E4  (47&............
000735AE CEA5 A9A1 8082 A4D7 F401 2125 1D25 221F  ..........!%.%".
000735BE 3040 5160 5F46 433A 3A23 5661 5453 6352  0@Q`_FC::#VaTScR
000735CE 25EE C498 A5B3 B8D2 DBBE 9EB3 C9CE C8C4  %...............
000735DE B1A3 A8B5 CDEF F9F1 0108 08E1 CBC8 CABC  ................
000735EE C7D4 F202 0C17 1509 306E 7F7F 7F7F 7F7F  ........0n......
000735FE 7F7F 6945 3A33 4827 EED1 E5DC B887 808D  ..iE:3H'........
0007360E B6D0 F218 2310 ECD7 BE9B AFA5 929D B9D4  ....#...........
0007361E DCD9 F3EF 1D54 6B6F 7279 756D 4003 EB03  .....Tkoryum@...
0007362E F9EC F2EA CFDB EBF7 0704 2417 0C0F 0F1C  ..........$.....
0007363E 08FF 040B FADE D6AE 928B 85AE BECA CCDD  ................
0007364E F5F3 CCAF DAFB F1F9 1D35 586C 5B55 6973  .........5Xl[Uis
0007365E 7F7F 7365 5B20 00ED EED9 B5A5 D3F9 2F43  ..se[ ......../C
0007366E 4C45 4D5F 603D 291F 14F0 CB92 8081 8181  LEM_`=).........
>m
0007367E 8181 8197 CFE5 C8BB C5DC E5F3 F91D 4844  ..............HD
0007368E 4918 1514 1B1D 2616 135C 4764 7670 5D64  I.....&..\Gdvp]d
0007369E 432F 1F16 FDEF FCF1 0007 F00E 2917 0C13  C/..........)...
000736AE 1226 FAF1 FDFE E4D4 B5A3 A3A7 838B A29C  .&..............
000736BE 8E80 8188 C2C5 C507 2219 0F39 5052 4825  ........"..9PRH%
000736CE 2A3B 3B30 0D02 0FFD F809 293E 3C43 5266  *;;0......)><CRf
000736DE 7B53 2611 2018 2128 13FE 0329 0700 EACE  {S&. .!(...)....
000736EE B5C7 9C80 8184 95C0 B6D1 EF0D FBE9 FCEF  ................
000736FE FECB EC01 ECE4 D8D4 DCF1 0607 2C5B 707F  ............,[p.
0007370E 7F7F 7F6D 2D2D 3022 E9B9 AD9C 939E 93D3  ...m--0"........
0007371E BCE1 F418 4650 595D 4D15 CA93 808C B9D6  ....FPY]M.......
0007372E F80D 3234 34FB 0620 1FFC E601 151D 060F  ..244.. ........
0007373E 202D 5178 6B6E 7666 6B5B 25E5 9F82 9FA4   -Qxknvfk[%.....
0007374E 949F AFBD B7BD DEF3 0103 0217 2622 16F5  ............&"..
0007375E E1CC B696 8081 819B B6D5 E9F8 0322 2430  ............."$0
0007376E 353F 5049 6062 6279 765C 7949 5C5A 0620  5?PI`bbyv\yI\Z.
0007377E 1325 2F36 3405 E6CE CCB4 B28C B1E8 F003  .%/64...........
0007378E E1AC C5BF BFBD B5BA CDCC CDE9 01F3 EBF1  ................
0007379E FF12 1B18 1D00 F1DA DFEE 222D 3A4F 5A53  .........."-:OZS
000737AE 4347 4239 3621 2018 1501 F4EA F6EC DCE1  CGB96! .........


>
>m
000737BE F20E 1D12 F2FE F8F9 EDDC E3D5 D1D2 D3D7  ................
000737CE DAD3 DCA9 A69D A9DE 1819 2B3F 525E 342F  ..........+?R^4/
000737DE 252B 1120 3236 1B11 190E 1A0D 061C 375B  %+. 26........7[
000737EE 5C39 4B48 2A14 E5F7 1D22 02E4 CCBA B093  \9KH*...."......
000737FE 8081 8181 8180 819D E4E2 2434 324C 3903  ..........$42L9.
0007380E E0D8 E410 07D8 D6C7 D7E4 E70A 345E 7676  ............4^vv
0007381E 7968 6A4F 2D31 2912 3571 7D7F 7063 573E  yhjO-1).5q}.pcW>
0007382E 351B E1ED EECE B5B9 AC9E 8080 8181 8181  5...............
0007383E 82A7 CBE3 FA09 202E 2316 F4FA F9DA C0CA  ...... .#.......
0007384E F205 181D 363F 422D 2338 3758 506B 3B3C  ....6?B-#87XPk;<
0007385E 2433 563F 1C34 F40C FBDA C2D2 CDC5 AF9F  $3V?.4..........
0007386E B5A3 9ABE BEE8 F8FB 090A 1D08 CB9E A3CF  ................
0007387E D6BE A3ED 371E 1422 344F 564B 486F 7F54  ....7.."4OVKHo.T
0007388E 1E16 1B03 EE14 3F4C 3019 0E0C F4E3 E3ED  ......?L0.......
0007389E F5EE E3DE C2A5 8880 8181 848C A3D0 D9DF  ................
000738AE D5E4 0A23 2825 3945 4848 4552 5358 636D  ...#(%9EHHERSXcm
000738BE 563E 4B61 422B 1E0B 0910 0AFE 081F 1E17  V>KaB+..........
000738CE 0E07 2912 F8F2 F3DC C9CD C1C0 ABBF DAE2  ..).............
000738DE E0E3 DFC8 A380 8181 8282 84A9 CAE9 FFE1  ................
000738EE F932 413D 4A54 534D 545E 5765 6B7F 7D7F  .2A=JTSMT^Wek.}.
>m
000738FE 3C56 6D73 514A 3225 15F1 CEAA 8DB1 B9BB  <VmsQJ2%........
0007390E B0B0 A7AF 9F98 9BB8 BEE9 0002 0FFA D8BB  ................
0007391E C2C1 B0A7 AFAE C5BA C3E4 E4F6 0D58 7F7F  .............X..
0007392E 7F7F 7F7F 7F4F 0CEC E918 466D 736F 7660  .....O....Fmsov`
0007393E 36FD BBC4 CEE6 F3F9 F9F3 EDD9 BD88 A6A2  6...............
0007394E A48E A3B2 BFEA D1C2 C1C5 B7CB DC05 2045  .............. E
0007395E 5862 4D7F 7F64 634A 251E 1C10 3B35 1E07  XbM..dcJ%...;5..
0007396E 1B1F 0404 0C1E 2B3F 4A41 F3B8 9280 8289  ......+?JA......
0007397E 8D8A 95AB C2B6 ACA9 B4CC DFF1 0F12 130B  ................
0007398E 04EF CFD9 F60C 1B3B 6278 7F6D 5B47 3F48  .......;bx.m[G?H
0007399E 454E 5166 7E69 4630 23EA B8D3 EEF1 DAFF  ENQf~iF0#.......
000739AE 0903 F2CC C2A4 9191 8480 8081 8181 8396  ................
000739BE 98C6 082A 221B 2B4E 757D 7F7F 7F7F 7F7A  ...*".+Nu}.....z
000739CE 5A42 2312 1407 ECE9 D6C9 C4F2 0F2B 3632  ZB#..........+62
000739DE 4048 4334 14EF D3C5 BDA8 92B1 BEBF BDD7  @HC4............
000739EE D1B7 A580 8081 8181 8FB6 DB08 2138 3F27  ............!8?'
000739FE 5079 6C76 7A7F 7F7C 4325 11FF 132A 3239  Pylvz..|C%...*29
00073A0E 6170 5C34 290B D9CF 0113 1621 04F2 D8D9  ap\4)......!....
00073A1E BF89 8081 8181 9DB9 C6D1 BEC9 D4D3 B7CD  ................
00073A2E E7E7 F70B 0500 0B02 EEDD DCF7 243A 4338  ............$:C8

>m
00073A3E 5E6D 7F6F 635C 5D5A 5160 637F 573F 482D  ^m.oc\]ZQ`c.W?H-
00073A4E FFBF C5D8 F9B1 B7DC FAE8 AB81 90B6 B09A  ................
00073A5E 829D E8F4 BDC1 BFB2 B4C1 DBFE 1C11 0D1F  ................
00073A6E 13FE FA26 5962 382F 445E 482E 2739 3C2A  ...&Yb8/D^H.'9<*
00073A7E 1B12 2130 392E 3650 3418 08F7 F603 EBE3  ..!09.6P4.......
00073A8E E6EA FE01 1405 E3B8 B0A3 A8A7 A0B0 B7CB  ................
00073A9E CABF D29B 92AA A1BC DAE1 1824 2922 5148  ...........$)"QH
00073AAE 4352 5069 7F7F 7F7F 7F69 40E1 D1D7 DBB5  CRPi.....i@.....
00073ABE ADC2 C7AA 8F88 BFBC D1F5 E9E6 0C20 0FE0  ............. ..
00073ACE F0F1 E4F2 0700 CFCF D1CD D7F3 2933 4D61  ............)3Ma
00073ADE 534D 3B22 1218 2C1D 1532 4855 6450 4F68  SM;"..,..2HUdPOh
00073AEE 6073 6349 4739 F6D0 B9CD B6A7 C2BF A6A9  `scIG9..........
00073AFE B195 8181 8281 83B2 CEF2 E2D7 D4BF B1A7  ................
00073B0E BAE1 152C 4C5C 5343 3D46 5869 6157 797F  ...,L\SC=FXiaWy.
00073B1E 7370 605A 1C08 07FA 041E 2611 0417 0DEE  sp`Z......&.....
00073B2E C9A2 8580 8181 8192 9EA8 C9F3 F8F9 F804  ................
00073B3E 2B20 02FF 0418 0A0F 0F14 211C 0CF9 1621  + ........!....!
00073B4E 1316 1748 6258 474C 5249 2E1A 1012 090A  ...HbXGLRI......
00073B5E C7AC A7AB B6BE EBEA F604 0A02 CEA5 ABAE  ................
00073B6E 9895 BDE3 FF0B 0BFD F70A 09FF 1122 484F  ............."HO
>m
00073B7E 4449 494E 4753 513A 2B18 3145 4A41 2912  DIINGSQ:+.1EJA).
00073B8E F7E2 D8D7 D3DF E706 1400 F3D6 C3AC B0BB  ................
00073B9E BBC0 DAEC FD01 EDDA BEA8 958D A4B5 C8BC  ................
00073BAE 918C BAFB 2020 4766 7F7F 7F7F 7F7F 7F6F  ....  Gf.......o
00073BBE 46F9 F0FA 0F00 FBF4 EEF5 F1F0 081D 1240  F..............@
00073BCE 1D20 1710 E8A5 B0B3 9E80 ACE0 F0E9 CCC7  . ..............
00073BDE C0C3 D8DA E9BF D2E9 0D08 1832 211C 3755  ...........2!.7U
00073BEE 6364 7F69 5C44 2A0C ECF4 0920 2517 221A  cd.i\D*.... %.".
00073BFE 2A5B 746C 2ADA D5ED E4E2 D7C2 DCDB E4D6  *[tl*...........
00073C0E B790 8781 8186 8181 95A7 CCCD EFEA E5EB  ................
00073C1E FC1F 3939 3847 3B41 6866 6564 7F7F 7F7C  ..998G;Ahfed...|
00073C2E 786A 4522 F8DA D9EA EEF8 FC0E F3D5 CFCC  xjE"............
00073C3E 9F80 8081 8181 A3D1 E2F1 FBF9 DEBE C7C6  ................
00073C4E BAB9 D3DF E900 271E 1D3A 6678 7F7F 7F7F  ......'..:fx....
00073C5E 7659 4336 2C17 3E34 397F 774F 456B 26FD  vYC6,.>49.wOEk&.
00073C6E AAB7 A6B3 B098 BDB2 AE96 8181 8981 8181  ................
00073C7E 8EA8 ABB8 05EA A8C9 1544 4957 507F 7676  .........DIWP.vv
00073C8E 4134 3B46 3605 EFFF 352E 0F06 


; Sample 10
sample_file_10
                ; --------------------- Sound Sample 10 -------------------
                ; Start Address: $00073C9A
                ; Name:          SKID2
>m 00073C9A
00073C9A 464F 524D 0000 2162 3853 5658 5648 4452  FORM..!b8SVXVHDR
00073CAA 0000 0014 0000 2102 0000 0000 0000 0020  ......!........
00073CBA 20AB 0100 0001 0000 4E41 4D45 0000 0014   .......NAME....
00073CCA 534B 4944 3200 0000 0000 0000 0000 0000  SKID2...........
00073CDA 0000 0000 414E 4E4F 0000 0014 4175 6469  ....ANNO....Audi
00073CEA 6F20 4D61 7374 6572 2049 4900 0000 0000  o Master II.....
00073CFA 424F 4459 0000 2102 FCE9 0FF9 D0CD F1DF  BODY..!.........
00073D0A D1E0 D8E0 E3BE BEE3 EBD6 CAC6 D5D2 B4B4  ................
00073D1A E002 F1EE FCF8 DFDE F2E8 041B 0D1E 1C0E  ................
00073D2A 13F4 F412 2A1E F818 2819 06DC F420 01EC  ....*...(.... ..
00073D3A 192C 01DF D80A 2414 E3ED 1902 D2D7 1023  .,....$........#
00073D4A 02DC D5F0 05E7 BCE2 120F E9D3 DD0A 1CFA  ................
00073D5A CEEE 2B1A F2D2 0144 26E4 E216 303A 0DF3  ..+....D&...0:..
00073D6A 315A 47FB F327 685D 2A27 454D 432C 1D12  1ZG..'h]*'EMC,..
00073D7A 263B 18FE 2A22 1613 F9ED 0E07 E4DB D4F9  &;..*"..........
00073D8A 2A17 D6C8 EA06 E9BD C708 09D4 C5DF F9E1  *...............
00073D9A B9BD E1F9 ECA8 ABE7 D8AB 9DAE D2CE B2A3  ................
00073DAA ADDB E3BD B7E1 0605 DBDF 031E 281C 2A35  ............(.*5
00073DBA 3E3E 313F 6D5B 6063 6451 4C4C 5961 5B4E  >>1?m[`cdQLLYa[N
00073DCA 322C 4243 2527 3A2D 2513 04F2 070A F9EC  2,BC%':-%.......


>m
00073DDA 12F4 CECF D3D3 E0E9 DBA9 B8E8 DBB6 A9C1  ................
00073DEA DFCE A3A0 B6D3 CBC4 CCE8 02D2 BFDC 00FF  ................
00073DFA E4DA FA2F 25ED F71B 1B13 0C0D 3243 1FFC  .../%.......2C..
00073E0A 1836 2A15 1A26 3528 191D 302B 1126 222F  .6*..&5(..0+.&"/
00073E1A 1C02 2D42 1F06 0E1B 2020 040A 0EFC EEE3  ..-B....  ......
00073E2A D7E3 E5DE D9CD DAC9 B0AD CDE5 C4AF D1DC  ................
00073E3A C1C4 C0B6 ED16 F6F1 02EC EB05 071D 2D0B  ..............-.
00073E4A 0315 1713 0709 2C39 2724 2321 2E35 3432  ......,9'$#!.542
00073E5A 2D13 444A 362A 2338 3826 3319 181C 0BF3  -.DJ6*#88&3.....
00073E6A 022A 25F6 D7FB 06F2 C4D1 DCE3 E7C8 BFC0  .*%.............
00073E7A A596 93A3 D3D6 C8C1 B1A4 ADB3 C1C7 DDE6  ................
00073E8A E7DF DF07 05E0 ED15 1F01 FE19 2532 3231  ............%221
00073E9A 2A34 4F47 4A60 5647 3A3E 433D 2C32 433C  *4OGJ`VG:>C=,2C<
00073EAA 2E19 160F 1D13 F8FB EBEF F7F8 FBED CDC7  ................
00073EBA CFD9 D4C3 C7D4 E3D2 C0C7 EFE8 DDF7 0208  ................
00073ECA 01F7 0E31 2F03 0629 382A FF09 524D 0AEA  ...1/..)8*..RM..
00073EDA 0A32 29E9 CEFE 2F17 EEF7 FE1B 0BCC DE01  .2).../.........
00073EEA 02F0 D7DB 1610 F7F2 EC13 1AF7 E4FE 0BF0  ................
00073EFA D5E1 1116 F3D1 D0ED F0CF C1E0 F1E0 C0B5  ................
00073F0A C0E6 DDC6 BBDC 15F3 D1DB E1F2 EDE0 013A  ...............:
>m
00073F1A 3113 0417 3B2D 0D11 4C78 562B 4770 613E  1...;-..LxV+Gpa>
00073F2A 2A4E 7967 2C1B 5270 4DF9 FB40 5B36 040C  *Nyg,.RpM..@[6..
00073F3A 1A0A F3EB F611 F6DA EC02 F5D5 92B6 00CD  ................
00073F4A 9DAD EC06 BF92 B2F9 EBD2 B8C4 E9EE D5D5  ................
00073F5A F515 2306 DCFE 1E09 FC21 2C25 1C06 1C31  ..#......!,%...1
00073F6A 0A08 0708 0D0D 050F 0DFB DFE1 080F 1102  ................
00073F7A E5FE FEFE FFEA D8F4 E0C7 D6E2 F6F7 DED3  ................
00073F8A C0BD BFCC E1E1 D5D5 D6E1 E7E0 D2D4 FD0B  ................
00073F9A E9EA F21A 3325 1F3D 553F 4651 5558 5068  ....3%.=U?FQUXPh
00073FAA 6B58 4741 4F55 4936 473D 2315 0C1F 2A04  kXGAOUI6G=#...*.
00073FBA DEEA 07F0 D7C5 CEF8 F5D8 C3D4 F8F9 E2E1  ................
00073FCA F405 EDCA E8EC E3D5 BDD2 FAFA CBAD BCD5  ................
00073FDA CBBC C0CD C5C5 B9B6 C9C9 CDC7 CAE5 EBEE  ................
00073FEA F4FC F408 2B1B 1022 2C3C 5148 3A3C 3D59  ....+..",<QH:<=Y
00073FFA 524C 514F 5C7D 6F56 4547 4338 392D 313E  RLQO\}oVEGC89-1>
0007400A 301A 0F08 F7E2 E8FB F4DA D2E0 F2D1 9DAA  0...............
0007401A BDBC AF9B C1E0 B8AE C4CE C7CA C6D8 E6F1  ................
0007402A F3E6 EE0E 1210 0E07 282B 1EF9 F517 2216  ........(+....".
0007403A 01F8 01FE EDE7 F407 0BFC F806 FE08 110C  ................
0007404A 1413 F8F1 1D35 200A 1229 0E06 081D 2915  .....5 ..)....).

>m
0007405A F6F5 100D EFEE E7E3 E7DD DCDB E1DA DCF3  ................
0007406A EAE3 D1D4 0B17 F0FE 2837 24F4 EF11 0F05  ........(7$.....
0007407A FC08 1E15 F8EF 032D 1A0C 0F22 1220 1819  .......-...". ..
0007408A 292C 2626 3A43 240B 1A36 331D F8EC 2133  ),&&:C$..63...!3
0007409A 2C03 F50B 11FD DFD1 0423 E2A4 B9FD FEB4  ,........#......
000740AA 8FC0 0003 CAA6 C001 E2AE C1F5 07DF C4EA  ................
000740BA 0FFC EEEC FA1C 11DB F927 2402 D8F9 3D33  .........'$...=3
000740CA FBF5 1334 4A1D 0526 4C4F 0813 3631 1E07  ...4J..&LO..61..
000740DA 0D21 26F8 EBF5 F8FE FFE1 D0D4 DEF1 E7CF  .!&.............
000740EA D1F2 F0FF E2C2 E202 F5EE E10C 3D29 180E  ............=)..
000740FA 242B 2E2F 1A29 4640 361E 0919 3819 FF06  $+./.)F@6...8...
0007410A 0C1B E6C5 C602 16E5 B1B6 EDFE CBBB E403  ................
0007411A F4C0 AFDB F8FB E4CE E406 FDE1 E4E7 E8F8  ................
0007412A D6CE D2E1 0FEC BEC1 F116 F1C5 D506 1F20  ...............
0007413A 0707 2746 3215 011D 424A 2E08 F61E 4B3C  ..'F2...BJ....K<
0007414A 1718 2433 260D 0F2E 3E53 4018 0B3C 6039  ..$3&...>S@..<`9
0007415A FEF5 1D4D 3DD9 CA0F 493C DDAE E726 28DE  ...M=...I<...&(.
0007416A A0CC FB03 CD9D A8E2 00F3 BFAC B4E9 F5CB  ................
0007417A B4B5 F031 20D7 BCE2 2F39 07EA 0743 6330  ...1 .../9...Cc0
0007418A ED09 364D 39F2 DA13 3E22 F5CB E614 1900  ..6M9...>"......
>m
0007419A CBD0 F627 07BE B1CF F303 D0A4 B5D8 FBE0  ...'............
000741AA A497 BCF2 FDCE B3C7 F703 D1C3 C9EF 170C  ................
000741BA E1DF 0752 6D3F 0812 446A 713C 1C49 7F7F  ...Rm?..Djq<.I..
000741CA 5621 135B 7A5C 06DC 205A 4E13 EDF8 213B  V!.[z\.. ZN...!;
000741DA 06B5 A7D7 232A E3A1 B0FD 2CE9 ADB8 FB32  ....#*....,....2
000741EA 04A9 A3CC 071B E1AE B1CD FDF4 A68A B5FB  ................
000741FA F2B7 9EAF EA06 DCBE CC05 290A DDEB 184A  ..........)....J
0007420A 33FD 1545 7B7F 451E 4D7F 7F67 4835 5170  3..E{.E.M..gH5Qp
0007421A 6930 1828 575E 3703 101D 321F DBD3 E2F7  i0.(W^7...2.....
0007422A 0FD6 B0CE FEF0 D5AC 9DB8 DDE8 AD8D 9BCA  ................
0007423A E5CA A89F C1DE C5BC CCEB 17EB C8F1 131E  ................
0007424A 23F6 F823 2D18 F1F5 4351 2710 0946 4502  #..#-...CQ'..FE.
0007425A 0C42 5035 F4FC 1F2D 25F9 E90A 3122 E2D8  .BP5...-%...1"..
0007426A FB26 2AFB C9EC 1605 DCAF AADB F1D9 C0BB  .&*.............
0007427A E805 DEB5 B6CF 0E02 C9CD F232 410B EFFF  ...........2A...
0007428A 2A4D 18D5 FA47 6B34 F8F9 2F5C 2BED FC33  *M...Gk4../\+..3
0007429A 6146 F5E7 1638 1F08 163F 1904 0F0D 1F0A  aF...8...?......
000742AA E6F6 100B F7D5 CEFE 11EC BAC4 F117 F6AF  ................
000742BA AAE4 17FA CCBB CCFF FEDD AAB9 F912 FFCB  ................
000742CA C301 1F05 D7CA 094D 2412 1525 431A F205  .......M$..%C...

>m
000742DA 4853 3619 0924 2B2B 3F52 5039 1023 4B39  HS6..$++?RP9.#K9
000742EA FEE0 0936 1FD4 98A9 EDE5 AB9B CADF D4BA  ...6............
000742FA B3DC E1BD B8BB E2F2 E7C4 E616 FAEB 051B  ................
0007430A 2D2D 2C29 495A 3828 3459 4D33 333C 473A  --,)IZ8(4YM33<G:
0007431A 240B FA12 1B19 0FFA EFEA FA0B FCDC D4E9  $...............
0007432A F8F5 C8C3 E6FF E8BF C7D9 DBF1 E1AD 929C  ................
0007433A D5C3 9784 9CC0 D8BD A4B7 D8DE D3D0 D2E2  ................
0007434A F818 200B 1343 594E 2B24 4F7F 7A6B 544B  .. ..CYN+$O.zkTK
0007435A 6563 4646 535A 5C48 4E47 3D2D 1425 2416  ecFFSZ\HNG=-.%$.
0007436A 1B2F 21EE F807 FC04 1508 E6D0 CBD6 DEF4  ./!.............
0007437A F0C0 ABD1 DBB3 A4B3 D8D0 B3AB BCD7 E6D8  ................
0007438A D3E3 EF07 2125 10F2 FA20 4236 1BFE 272E  ....!%... B6..'.
0007439A 16F6 E50A 3628 0403 F8FC 171E F5DF 1135  ....6(.........5
000743AA 1CF9 EEF1 F1EE E9F3 EFF6 05EE DFBE A7CF  ................
000743BA 08EA A2AB DFED BEAA ACE0 1AEF C0CC 0B1E  ................
000743CA EBF8 2520 1E25 4A56 3314 4A7F 6B20 1249  ..% .%JV3.J.k .I
000743DA 6F47 1A1A 4F61 3B23 1B33 29F9 FE29 10EB  oG..Oa;#.3)..)..
000743EA DB1A 26F4 CBDC 1526 ECB2 EE10 06CD 96D3  ..&....&........
000743FA 06F3 A890 C8D3 9487 A2BE BD9B 97C0 CBBC  ................
0007440A B1BB E1EB EBDD E2F8 0313 1015 3247 464C  ............2GFL
>m
0007441A 5268 7772 756D 797F 7C61 7074 6F4C 3747  Rhwrumy.|aptoL7G
0007442A 4F35 1607 1E24 1201 E8EF F3EE CFD3 E0B9  O5...$..........
0007443A 9FA9 CED4 9584 B0ED DA9A 82A9 EFE5 AC9D  ................
0007444A BFFE 14EF C7F7 2809 F4EE FC29 210E 2633  ......(....)!.&3
0007445A 4321 0423 5352 1CFB 285F 5317 E00B 5550  C!.#SR..(_S...UP
0007446A 07B9 D43F 5111 B0A2 0143 FD99 A0FB 441B  ...?Q....C....D.
0007447A 9D83 C62C 069C 91C6 2AFB 9B97 CC17 09BB  ...,....*.......
0007448A AFDD 1C1F E0D0 E624 3CFC D809 4F62 2700  .......$<...Ob'.
0007449A 1A4C 6034 FD1D 5262 3BFB 0137 5221 EF19  .L`4..Rb;..7R!..
000744AA 5945 0DF3 3556 3700 F029 4301 D3E3 1A2E  YE..5V7..)C.....
000744BA F9A5 ACFC 1AEC 9891 DC0D E083 82BE 09EB  ................
000744CA 8884 C710 05B2 98C0 0625 F8B3 DF28 3510  .........%...(5.
000744DA D4D2 194E 462B 112B 5049 2618 6155 4925  ...NF+.+PI&.aUI%
000744EA 4359 431C 111D 3407 F3D5 0128 EDAC C4FD  CYC...4....(....
000744FA 1CDD 97B8 FA32 0396 9EDC 2914 B09B EA47  .....2....)....G
0007450A 2FB4 A0E4 4D49 CA9D E34D 5E03 ADD2 3A6C  /...MI...M^...:l
0007451A 2CB8 B908 6543 E2C5 F241 4FF7 D1E5 4366  ,...eC...AO...Cf
0007452A 2FE1 D60E 4846 02D9 012B 2F08 BDB5 0812  /...HF...+/.....
0007453A E5A4 9CE2 07BC 8492 C1ED B496 B1DD E6CF  ................
0007454A C9DE 1C31 F2D9 FC3E 420A 0114 4664 523A  ...1...>B...FdR:

>m
0007455A 264B 6D5C 3521 3459 5733 1D1B 3835 1608  &Km\5!4YW3..85..
0007456A 1325 0BF8 EE12 452C D2D3 1F34 F6D9 F414  .%....E,...4....
0007457A 31F4 C1D3 DFD9 F7E2 CFF6 FBF2 D4D4 CFD1  1...............
0007458A DE03 F7DB E6DB FD1B E9CB C9FD 2CF2 DBE3  ............,...
0007459A 1222 08EB F100 1411 FD07 1A1D 0B07 000E  ."..............
000745AA 10EF FB28 11EE C1AF E610 D09A BC12 0EC2  ...(............
000745BA A6CF 1B15 C2B0 D717 18ED DD01 4540 1B13  ............E@..
000745CA 275A 5032 FD13 585D 20FD 2C62 3C00 0636  'ZP2..X] .,b<..6
000745DA 4F15 E903 3530 13E7 F33B 24E3 D6EF 3926  O...50...;$...9&
000745EA DCE5 FE25 18EA D4E9 0A05 D6BF C6D8 D7BD  ...%............
000745FA A797 B8CF C9B5 ACB4 BDBF B5BE C0BA C1D2  ................
0007460A F3F7 DBE2 0A2B 0EF0 166A 7F2D F933 7F7F  .....+...j.-.3..
0007461A 3216 6D7F 7F57 2D6B 7F78 381A 3D61 5827  2.m..W-k.x8.=aX'
0007462A F008 4035 F7BA D316 04C4 9EB5 D0D5 A88F  ..@5............
0007463A C1D1 A8A1 9DBD DBBD ABC8 FBFC E9D2 E312  ................
0007464A 18DB D4F1 112C 13DA E010 3629 121D 1F40  .....,....6)...@
0007465A 370C F506 363D 3005 042C 3E26 140B 0723  7...6=0..,>&...#
0007466A 341C 0C0D 162F 0CED D9DC 02F7 D7B8 BBD7  4..../..........
0007467A E5B1 97AB C1CA A29B CB01 F7D8 CD0B 2B17  ..............+.
0007468A 04EA 001E 1EFC ED10 1E29 1B04 1B3F 1107  .........)...?..
>m
0007469A 292E 2923 1B36 5A55 261E 5164 431F 184C  ).)#.6ZU&.QdC..L
000746AA 47FC DA0D 2E16 D6C6 F50B DEC5 B1CE 0400  G...............
000746BA C9B5 BFD8 DAA2 84A3 D6CF B3AE BBE6 E4D9  ................
000746CA E110 1B15 F0F0 131E 17EF 1D4E 3815 0C4C  ...........N8..L
000746DA 6548 2F0D 2F6C 5629 1432 623D F3DC 031F  eH/./lV).2b=....
000746EA 1AC4 B5F9 21FC D2CE F02D F5C1 C0F8 24F4  ....!....-....$.
000746FA B7A9 E025 F8C1 E819 1F04 E0D5 080A E301  ...%............
0007470A 0B03 0114 07F2 EBFC FDFE EEE1 F6FF 0D03  ................
0007471A ED08 321E FBFF 0921 2A02 FF30 3E37 14E4  ..2....!*..0>7..
0007472A F814 FDF9 F2ED F9E2 CFBF A2A8 DAF1 DDD3  ................
0007473A CACA D2CE DBE2 F607 000E 22F8 EC05 162A  .........."....*
0007474A 0CFA 1247 5033 0B33 6867 5734 162E 5048  ...GP3.3hgW4..PH
0007475A 1DF5 0B56 5013 0011 2028 0F00 1916 0200  ...VP... (......
0007476A 00FA DABD F30D E6CA CABE BCD9 F3F2 C8E7  ................
0007477A EA05 FAD5 EB16 08F1 E3F8 2617 ECEB 163C  ..........&....<
0007478A 1208 2A1A 1707 F7F7 06F1 F926 06E9 E1D7  ..*........&....
0007479A D5EF F4F6 EDC6 B8D4 DBC2 CAD5 EAE3 BDBC  ................
000747AA CDDD F3CD D4D0 CDE5 0EF4 F9FC 041C 0B32  ...............2
000747BA 4D36 413A 3F47 6153 504C 6460 5343 3737  M6A:?GaSPLd`SC77
000747CA 281E 1A0B FE08 11F6 E0C9 DBD6 E0D4 C9D7  (...............

>
>m
000747DA FDFD D8C1 CA0C 22F0 FB0D 0CF8 F9F9 E1EC  ......".........
000747EA E4EF F8DB D8DB D4D0 B39B C7EB EFD6 ADD1  ................
000747FA 020B DDCC F523 1CF2 E617 3E44 182B 6073  .....#....>D.+`s
0007480A 5725 2961 7F77 484A 6572 5323 1030 4F2F  W%)a.wHJerS#.0O/
0007481A 0B0B 282E 02D5 CBE6 E6DD D6B8 A9C8 B8A2  ..(.............
0007482A 8BB7 E4C7 999F B5BC C8D7 E0EA E1E0 E8E5  ................
0007483A DF0F 220D DBD9 202F 06FD 3053 3A24 2936  .."... /..0S:$)6
0007484A 3737 2718 1F16 211C 181F 1215 100C 1B02  77'...!.........
0007485A 02FA EEF6 0B04 ECD5 CCCB C8B0 B8C9 C4BE  ................
0007486A B4A3 BADA EFF0 0009 EE0A 1F02 FAF7 213D  ..............!=
0007487A 2CF8 FA2D 6639 F4EE 3339 1E02 1146 4229  ,..-f9..39...FB)
0007488A 1C37 3111 0E31 311B 090E 1E06 E006 1211  .71..11.........
0007489A 06F6 D9E4 EE0D F6CB D404 12DE AFB2 031A  ................
000748AA D0A7 DBF1 ECC0 C3DB EA00 E8C4 E927 3F10  .............'?.
000748BA EA03 150A E1EF 2746 03F9 2A2D 1BEA 0131  ......'F..*-...1
000748CA 584B 2E27 2413 2C35 0C0F 2309 FCE5 E9FB  XK.'$.,5..#.....
000748DA EAD1 F8E8 D1A6 C90E 05F1 E7FC FCEF D6C9  ................
000748EA E801 EFEB FA05 1304 D7EA 2028 1B07 140E  .......... (....
000748FA 1F1B 0E0B 1D3A 2305 EAE8 2B31 0F1F 1C15  .....:#...+1....
0007490A 0FF9 0C29 08F4 ECE0 DBF0 E1E2 DCDC C1AE  ...)............
>m
0007491A BBBE BBDB DBBC B5CA CBBB BDEB 16F5 E9F2  ................
0007492A F4FE 2124 FCEA FF21 3828 1C3E 5444 1925  ..!$...!8(.>TD.%
0007493A 667C 5733 3739 3A26 1401 182D 2D32 2C14  f|W379:&...--2,.
0007494A ECFC 0B20 13FA 0023 351A DBC2 0320 04BE  ... ...#5.... ..
0007495A A3F8 08D3 B6AA DC0B EFBE D3F3 F9F2 E1E7  ................
0007496A DAE4 F3F1 EE01 10EB F3EB 0E1F 0C11 242E  ..............$.
0007497A 110C 2341 3D08 FE14 27EF D4F5 0702 D4AF  ..#A=...'.......
0007498A D206 F4CA CDD0 FAF5 C3C1 CEEB E3D3 D3E0  ................
0007499A 1A13 EAD4 F00B FFF2 091B 1328 3D20 2244  ...........(= "D
000749AA 5E49 372E 2035 2C14 2045 2C0A 0D19 1EF6  ^I7. 5,. E,.....
000749BA EC03 18F6 DBD9 0D20 0DE8 F1FD F4EE D8DA  ....... ........
000749CA EAEA D4CB D2B7 CACF B8B0 C7E0 C19E B6F1  ................
000749DA F1B7 BAEA 0DF4 CAC8 F029 10F2 ED2E 6D66  .........)....mf
000749EA 2914 457F 7F45 426F 7F6B 2B38 7279 6032  ).E..EBo.k+8ry`2
000749FA 3551 4C2A 1628 201A FEB7 CB01 1AE3 8997  5QL*.( .........
00074A0A D5FC DE89 82B7 EDDB 9281 A8F2 FBB4 82A0  ................
00074A1A FF14 C09C C308 00CE C008 512C F0E5 0F43  ..........Q,...C
00074A2A 4619 FF10 4A6B 39EF FE4C 5A23 042B 6164  F...Jk9..LZ#.+ad
00074A3A 15ED 0C3F 2BD8 FD33 34DF C2E1 04F9 C3A7  ...?+..34.......
00074A4A D8F2 E6BB BEBA E31A 13D7 DB06 1204 D0EC  ................


>m
00074A5A 05F8 0D02 E70A 272C 04E8 F11A 3B09 D7D5  ......',....;...
00074A6A E11B 361A EB28 464B 3A13 1738 5B48 00F1  ..6..(FK:..8[H..
00074A7A 0026 2F01 E6EA 0115 EB9F 9BCD F8ED C7B9  .&/.............
00074A8A C5E1 C6D1 D3A6 ACD3 F9E1 B6CD 0408 FAF3  ................
00074A9A 0C24 2109 0113 332B 1824 3E5E 520C 1F62  .$!...3+.$>^R..b
00074AAA 7565 412A 4857 4D2D 0904 171F 2214 D3D6  ueA*HWM-...."...
00074ABA FFFD F5CE CBF9 F91E F9C5 E5F6 F411 DDBC  ................
00074ACA B8D0 F401 D9AF C0FA 1817 CC98 C107 34FE  ..............4.
00074ADA A1AE D603 1AD3 ABC3 004A 28E2 D011 545B  .........J(...T[
00074AEA 21EC 0049 643C 19EA D522 39F7 08EB D0DC  !..Id<..."9.....
00074AFA A7B4 FCDE B5C9 D6EA FEC8 C5EE 2135 27E8  ............!5'.
00074B0A EE20 273B 16E4 053C 4946 0FEB 1C54 7668  . ';...<IF...Tvh
00074B1A 3513 3156 3B13 F9ED 3215 E9FE DAFD 2AF5  5.1V;...2.....*.
00074B2A 0020 0100 0EF8 1132 F0F1 05EE 2229 C5B5  . .....2....")..
00074B3A 0BF5 00FF A2C5 17F8 10D3 8FC3 1DFF EEB6  ................
00074B4A 8DEA FBE8 02BD AC15 3316 1FC6 AF10 2846  ........3.....(F
00074B5A 4FFE DA06 064C 57D2 94D5 1F58 1292 94D3  O....LW....X....
00074B6A 2B5D EF8E ACE5 1D3F CF9A C80B 4C44 BDAF  +].....?....LD..
00074B7A 0459 6335 CBF1 5175 6F24 EF0F 5A69 5D32  .Yc5..Quo$..Zi]2
00074B8A FCF7 394B 3E0F B4E1 1CFB EA10 F9FD E6D2  ..9K>...........
>m
00074B9A 172E E2D7 D8BB E9FC E4D1 AEA4 F7ED C49D  ................
00074BAA 97C1 01C3 9AAF B4DC E8C5 ADC3 F015 EFC4  ................
00074BBA D5F1 1935 17F0 EF13 6B7F 3BED 115F 7F7F  ...5....k.;.._..
00074BCA 0A18 5B7F 7F71 0F3E 7F7F 7220 113F 6255  ..[..q.>..r .?bU
00074BDA 15C5 C623 430E 9591 C333 2EAE 8085 E63C  ...#C....3.....<
00074BEA E380 829B 2B2B A680 ADF6 FAC8 A8E3 0DD7  ....++..........
00074BFA C7EC D90B 11FD 0D08 032B 5830 E507 2334  .........+X0..#4
00074C0A 562F FAF6 3247 31FF 2214 191A 2A2C 00F8  V/..2G1."...*,..
00074C1A 1417 1E01 D1CC E0E4 F9A2 8FDC E4F2 F0B9  ................
00074C2A DE11 EDED F9FC 1B30 D6E4 2813 1EE8 B328  .......0..(....(
00074C3A 5A30 E9CD F943 5022 F2EA 3345 370B F1F0  Z0...CP"..3E7...
00074C4A 2534 2D13 18FA E7F6 2F47 14A3 960D 4B2C  %4-...../G....K,
00074C5A C280 9C25 20D2 9092 EE1E B291 BEDE E1D1  ...% ...........
00074C6A A9BF DED9 C5E5 DCF8 E9F2 1C2D 23F4 CB0C  ...........-#...
00074C7A 6771 32F5 EE6B 7F63 0A1F 6E7C 5F33 1D3F  gq2..k.c..n|_3.?
00074C8A 4137 0FF4 FA18 171B DECE 161C FAEE CBE4  A7..............
00074C9A 2813 F5E3 CF07 02C6 C8C5 E409 E7CC EA24  (..............$
00074CAA 3EF3 E4E5 081C F8CE D9EC ED09 EEE1 EBE6  >...............
00074CBA EE24 07D9 D2E1 121F 12EB D5D2 0A2D 1503  .$...........-..
00074CCA E2D6 0614 EBA4 9DDB 1FF2 ABA3 BA00 35EC  ..............5.


>m
00074CDA C0D8 1F41 28FF DB1A 2F14 39F5 0937 1C28  ...A(.../.9..7.(
00074CEA 592E 3855 145C 7F64 4E24 3260 5701 D70F  Y.8U.\.dN$2`W...
00074CFA 5048 1608 E8E9 2734 1A03 EAFF 011F 0EEB  PH....'4........
00074D0A F4E4 E70E DDB6 D6CE E200 B89E F229 F7A9  .............)..
00074D1A 94CD 1A18 C3AA B9D5 0AED CCC6 ACC4 1036  ...............6
00074D2A 12CB B100 553F F6D3 E030 5B1D C8BD CD1C  ....U?...0[.....
00074D3A 37F5 D1B2 D510 380F BEC1 FC40 35D5 D0F0  7.....8....@5...
00074D4A 1B53 27E3 062E 3453 0AED 2151 7954 F1F4  .S'...4S..!QyT..
00074D5A 546E 4C04 143A 4838 10C9 F131 2F2C EEB1  TnL..:H8...1/,..
00074D6A E728 32FF BBE0 0C2A 21C3 AAC4 B5F3 14D7  .(2....*!.......
00074D7A D697 92E7 01D9 AF83 9EDD F1C9 B390 AAEF  ................
00074D8A DCC1 B9BB E60B D9D6 F5FA 02F6 F31E 2E36  ...............6
00074D9A 4535 4068 797F 614C 667F 7F64 3C4E 7879  E5@hy.aLf..d<Nxy
00074DAA 5C54 3F2D 3F30 201B F807 FEE4 DFAF A6E7  \T?-?0 .........
00074DBA DAD4 AF81 B7FB D6F8 B682 CA00 15F2 999F  ................
00074DCA C5F7 34F1 A7C3 D52B 26D5 B9D8 1363 3CE4  ..4....+&....c<.
00074DDA D212 2D49 0CC2 D0F4 1E50 28DD DAE4 2858  ..-I.....P(...(X
00074DEA 0DDC DADB 403B E5B5 BFEE 3914 A6AB D911  ....@;....9.....
00074DFA 2C00 D4D4 0C26 2826 F0BE E03A 4429 0DEF  ,....&(&...:D)..
00074E0A FE26 2A20 DBE5 1641 440C DE23 5952 37E0  .&* ...AD..#YR7.
>m
00074E1A F257 653C 33FD 285F 4C23 D1BD 0537 1BE4  .We<3.(_L#...7..
00074E2A D9D6 FBF4 CAB5 BFCD EFCC 999E BCC7 C6C9  ................
00074E3A AAB9 BBD3 DCC2 D4E6 D9DA 07F8 E2F3 0028  ...............(
00074E4A 3C1B 1D14 0834 4B4E 521C 2949 4F67 3114  <....4KNR.)IOg1.
00074E5A 3E55 582D DFC8 FE3C 16DC C5E7 3344 FBC0  >UX-...<....3D..
00074E6A E722 4815 B8C2 F018 2FE5 C6D0 C60B 43F5  ."H...../.....C.
00074E7A ADC1 1250 FBAE C8F3 1F1A AAAB F51C 31EB  ...P..........1.
00074E8A AAD2 F516 12FD DCBE 0133 01B8 B821 5416  .........3...!T.
00074E9A D2D6 2839 C9A2 D41B 28E0 94AE F213 04D7  ..(9....(.......
00074EAA B6DD 1D48 33D5 D424 6952 EFC0 EA39 5643  ...H3..$iR...9VC
00074EBA 09E0 1E69 6636 F3E6 2647 2F10 1415 02E1  ...if6..&G/.....
00074ECA 032E 1CF9 FD1B 3332 02FD 3034 321E 1D22  ......32..042.."
00074EDA 1428 34F6 C6D3 141F 05C7 B3F9 1F24 E4C7  .(4..........$..
00074EEA E2F3 05FE D3E1 E3DA D7DB D0C9 CED8 E3FD  ................
00074EFA F4C1 C8FE 0C0A 07F9 0407 FBEB D6E2 F7F4  ................
00074F0A E6EA E1DF E5C2 D9EF D0EC FDCF F20B 0915  ................
00074F1A FF02 190B 0023 1F0A 202E 414C 1914 4752  .....#.. .AL..GR
00074F2A 5046 3537 5D5F 4D2D FF16 4145 0AEF 0A36  PF57]_M-..AE...6
00074F3A 36E7 A7C4 1536 18B4 95DF 1707 9A80 B1FF  6....6..........
00074F4A 05CA 828D DDE6 E7BA 92B7 D0E4 E1B4 BED7  ................

>m
00074F5A DAD5 F4E1 D9DA F70D 3E53 28FB 253C 4E26  ........>S(.%<N&
00074F6A 0345 7F63 3A25 134E 7E47 2510 3478 6E23  .E.c:%.N~G%.4xn#
00074F7A 2257 473F 0CF5 2229 1206 E5F5 2826 DA9A  "WG?..")....(&..
00074F8A B603 12E8 B1BE 060C B8AA D51C 2DD6 80A3  ............-...
00074F9A FD1D E099 A5DC 13D6 93A3 EF21 0CD5 BAD8  ...........!....
00074FAA 0804 0D00 E40F 2F37 21EC E007 3B2A 2E28  ....../7!...;*.(
00074FBA 080D 1026 2B07 1C1A FB05 D4E0 E5FB 07E6  ...&+...........
00074FCA CDD8 F816 0DE0 D4F6 2E30 11F9 0412 1023  .........0.....#
00074FDA 16F6 E603 110F 0CFD FD15 180A 0E0E 1526  ...............&
00074FEA 3317 011B 372F 0DF5 0432 4814 CBEA 193D  3...7/...2H....=
00074FFA 24F4 BCCD 172C E395 B6DA 01BF 818D D6EA  $....,..........
0007500A C494 A5D6 FCEA C5C6 FF25 FDF8 F9FD 1B26  .........%.....&
0007501A 3428 082E 4434 3928 4558 2825 4E4A 4421  4(..D49(EX(%NJD!
0007502A 0138 4621 1BFD F218 1FD3 BBCF FC28 02E2  .8F!.........(..
0007503A C6E1 1D33 08DE E418 2B0B B8A3 C623 3B09  ...3....+....#;.
0007504A BDC9 2F57 1FDA BFE2 1F13 EDB2 AEE3 F60B  ../W............
0007505A CDA7 BBE3 050A DBB9 B5DD 1535 F9A7 D724  ...........5...$
0007506A 3810 BBAC EB29 35DC A1C4 283D D9B0 BB09  8....)5...(=....
0007507A 7C5B DEC0 FD6C 7F3E E0EA 2C49 34E8 E431  |[...l.>..,I4..1
0007508A 6155 06E7 3957 3E1B FF32 6A24 D2E6 0917  aU..9W>..2j$....
>m
0007509A 1CE6 DFFD E7ED 0A0B 081F 0FF4 1A33 371F  .............37.
000750AA F3F1 03E7 E8DC E919 1D0D DFD9 0333 25FB  .............3%.
000750BA B3DA 272F FBAA A607 38ED A091 BA16 19C8  ..'/....8.......
000750CA B7B7 0546 F0AE B70F 5A1A BCB2 F04E 28BC  ...F....Z....N(.
000750DA AADF 1A14 C29C B512 47E9 B4C1 F346 2ED3  ........G....F..
000750EA BFFC 4E4C F9DC 0A49 4616 0046 7F3E 1229  ..NL...IF..F.>.)
000750FA 5672 691D EA29 675A F5D1 FF55 5514 BBEB  Vri..)gZ...UU...
0007510A 3D3E 0EAB 9DE8 100C DBAB 9CD1 D7B1 A7A1  =>..............
0007511A C500 03B7 9BA7 DEE7 B8A0 C0D9 E2C5 B7D2  ................
0007512A F4F6 E3D9 0220 1E27 1F2D 294F 2410 4E7D  ..... .'.-)O$.N}
0007513A 7F55 2F2F 5E4E 2341 363A 561F 1A36 3749  .U//^N#A6:V..67I
0007514A 4C23 282A 3C2A 01F0 0530 0DBE C802 310F  L#(*<*...0....1.
0007515A BDA4 BEEF 0CCD A8C2 F211 ECA7 B9F6 01D7  ................
0007516A B2CD F9E0 A592 DD0F F3B9 ACED 1309 C7AC  ................
0007517A D936 34E8 BCE8 4863 13B8 D53A 7039 D7CD  .64...Hc...:p9..
0007518A 1051 51FB B6C5 265C 2BD4 BD11 491B B9BC  .QQ...&\+...I...
0007519A F91B 00BC C5F6 1F0F ED11 0C10 11ED E502  ................
000751AA 05FE 2442 340F 132F 2B20 1819 2909 1618  ..$B4../+ ..)...
000751BA 1C47 2A07 2B55 4A21 F217 343E 0DDB 090E  .G*.+UJ!..4>....
000751CA 1808 DDB5 BBE4 F4CD 9AA9 B9CA CA8C 81A5  ................
>

>m
000751DA D2E2 C2A3 A7C9 F20E ECCB DE1C 3215 EA07  ............2...
000751EA 534C 1415 231E 463F 1723 3851 6941 111F  SL..#.F?.#8QiA..
000751FA 4D52 320E FA15 3F18 D0D7 EF0D 1FE6 E122  MR2...?........"
0007520A 271D F7C2 E839 2DF1 E0E3 1417 08EB ED1B  '....9-.........
0007521A 2B06 DACA 0903 D1D3 CBC8 DAD5 C6C4 CFE8  +...............
0007522A DAD1 E8E1 C6D1 ECE5 01E0 C6D3 010E FAD3  ................
0007523A E31A 4112 E5CA DD14 1F04 CABF 012B 1C11  ..A..........+..
0007524A EDFE 1D4C 3E1F 0818 567F 3AE9 0438 764C  ...L>...V.:..8vL
0007525A DDB5 0B72 621A BED8 5363 FAC3 BD1F 5C0B  ...rb...Sc....\.
0007526A BEA7 EF5E 3CD3 B7D1 2A67 30FE E0FC 4D3D  ...^<...*g0...M=
0007527A 05FF E9EF 211A 03F1 DDFD 1419 FCDE DCF7  ....!...........
0007528A 15F5 FEF6 DD03 FEB3 AEB4 F026 E6C6 CBEC  ...........&....
0007529A 2C30 EDC6 CAEA 1608 D5D0 CFD3 FD05 DDA8  ,0..............
000752AA BFDC F5EB CCCE E00F 2DE9 E0FD FA26 1CE6  ........-....&..
000752BA 012E 4631 F603 5B69 5D32 224E 7063 6848  ..F1..[i]2"NpchH
000752CA 333C 232A 4D10 E9FB 0537 30DA DCFA 0318  3<#*M....70.....
000752DA E195 D0EB FEF0 A69F DAC2 E2CE 8CA4 CEEF  ................
000752EA E8A7 97AB C7EC EFAD A2BD DAE9 E6C0 C3E6  ................
000752FA 1C3A EED1 1553 4C4E F3DE 247D 7F40 E2FB  .:...SLN..$}.@..
0007530A 5C7F 77F2 C937 7F7F 38C2 E364 7F63 EDD5  \.w..7..8..d.c..
>m
0007531A 336F 6122 DAFE 484C F7C2 F42C 38F1 98D3  3oa"..HL...,8...
0007532A 2C2A E398 B3F3 1500 AAA6 D803 F6A4 91C0  ,*..............
0007533A F0F3 A584 C5FE 12C4 96D0 344B 0EB0 C537  ..........4K...7
0007534A 6D2D BAC5 3371 4AD0 B229 784F DBA4 0369  m-..3qJ..)xO...i
0007535A 5B00 ACD9 3A6C 36C0 ADE6 443C C891 D541  [...:l6...D<...A
0007536A 34DC 98CC 2C32 E4B0 B1EF 4323 D2D3 ED43  4...,2....C#...C
0007537A 4DEF E509 0518 5239 04C9 EF59 63FE C0DC  M.....R9...Yc...
0007538A 4975 35C0 C124 6C4B F2B3 FD53 2AE6 ADE2  Iu5..$lK...S*...
0007539A 4526 D499 C10F 04CC A6BB 01FC B5BC E20D  E&..............
000753AA CCB0 F633 15CE D325 2229 06C7 003A 5E2D  ...3...%")...:^-
000753BA C9E6 273C 4509 EB1A 2C5B 51FE D907 2C2D  ..'<E...,[Q...,-
000753CA E0BA E327 450E C8BC 0765 44F2 C206 6649  ...'E....eD...fI
000753DA FEC1 E64A 591D DCCF 2A52 22EE D0F7 2210  ...JY...*R"...".
000753EA ED03 D9E7 DCCC EBF0 A6AE CBD3 DFBC 9DC2  ................
000753FA CDEE 23D2 B6F3 E6FE 01BE FBF7 F318 CEDA  ..#.............
0007540A FEE5 1ACD CA13 2A1E 02C6 E44A 691F D5DD  ......*....Ji...
0007541A 527F 50E7 D827 7F57 E8F5 237F 6BE3 C11C  R.P..'.W..#.k...
0007542A 7361 D2A3 DB53 5ED4 9ED2 2E5C F29F BB0A  sa...S^....\....
0007543A 6029 C2C0 0D6C 57D9 ACF5 534C DFA4 D851  `)...lW...SL...Q
0007544A 63FF A0B7 2966 35C7 95ED 5D44 DB95 A931  c...)f5...]D...1
>

>m
0007545A 54DE 8999 0D63 47B6 8DE8 5858 DE84 A729  T....cG...XX...)
0007546A 5BFD 8C8F 1755 0D9E 85BA 3730 B692 B41C  [....U....70....
0007547A 4CE5 A8BD 015C 28C7 CA00 625D F0EA 2F64  L....\(...b]../d
0007548A 5731 0A3E 5B55 3A13 0F50 4F19 F3E3 414C  W1.>[U:..PO...AL
0007549A 0FD3 E81F 3819 E6CA ED0A 09D8 9EC5 F6F6  ....8...........
000754AA DAAB BCE5 F1EA C3C7 EBF1 DBD1 BAD7 EFE4  ................
000754BA CEC4 C8FB 09F2 DACF 0027 01F0 D9F9 2C24  .........'....,$
000754CA 03F8 0025 2A29 1828 2D2D 3B2D 344E 432F  ...%*).(--;-4NC/
000754DA 3532 2E26 2D32 272C 311D 2C1C 0618 2F26  52.&-2',1.,.../&
000754EA 1F1B 1413 EFF1 F3F6 FEE8 D0E3 D5D8 DCCD  ................
000754FA CDD9 DAD2 CCCE D1B9 ABB0 D5E2 A5BD DFDE  ................
0007550A E3CC C5FB 03F9 0EF8 FAFE 273E 1409 E90C  ..........'>....
0007551A 5A54 1CDE DE54 6D3E F9BC 1364 33EA AEB7  ZT...Tm>...d3...
0007552A 2B42 EDA5 A4EA 4227 F1DF E730 5507 DEFC  +B....B'...0U...
0007553A 315B 29C4 D005 3254 1AE9 1129 1E1B 0C17  1[)...2T...)....
0007554A 1B1A 0318 290A DEE5 EF21 350F FFD9 CA35  ....)....!5....5
0007555A 2FD9 B0CF FC25 04CF D4C1 C614 FABB DABD  /....%..........
0007556A BF05 EDE2 EBC3 E814 07E7 E2F9 2F3D 2609  ............/=&.
0007557A DB18 3F33 2EF1 FE42 2811 1413 385B 2FFD  ..?3...B(...8[/.
0007558A F612 421E DDE8 EBFB EDD0 E622 3F0E DEDF  ..B........"?...
>m
0007559A 0E3E 24DD E41A 4A29 DFDA FF31 420D C4D3  .>$...J)...1B...
000755AA 2421 F5DB EC2C 4106 BBB9 F53B 0092 95EB  $!...,A....;....
000755BA 1B08 B294 B902 31EC 979E F528 0ED2 95AB  ......1....(....
000755CA E2FD F9D8 BDDC 00EF FEEB D911 1D20 0D03  ............. ..
000755DA 170F 163D 211F 2605 0D27 0D54 43FF FD25  ...=!.&..'.TC..%
000755EA 6077 32F1 F328 4A27 F9E2 063A 32E3 D3FF  `w2..(J'...:2...
000755FA 3831 2CE6 E637 3712 F6E2 0934 25F9 D4DE  81,..77....4%...
0007560A 1703 E3C3 BD18 1AD0 A0B6 1736 ECA6 BB00  ...........6....
0007561A 351F C5B2 F134 40E4 A2D2 3B4C 1EC6 BE22  5....4@...;L..."
0007562A 2C14 FAC5 F91E F7E6 DADD F6ED D3B8 C9F7  ,...............
0007563A FEF2 E0E2 FCF1 F9EC F6F5 EAF6 0F24 260A  .............$&.
0007564A 191F 1128 3A25 3036 4B55 2DF6 0334 4554  ...(:%06KU-..4ET
0007565A 240C 3D35 2A1C 040A 0FF7 D5D0 FAE7 D4D7  $.=5*...........
0007566A C6DE F8BE A5A9 DF13 DBA1 BFD2 F1D7 9C9B  ................
0007567A CF0F E1B0 B5C1 0A14 D2CD E60D 2BE6 DD18  ............+...
0007568A 3222 F7EE 2055 4622 FF34 664E 0D05 3E7D  2".. UF".4fN..>}
0007569A 6B25 0643 5E53 4322 3641 4140 0F02 031B  k%.C^SC"6AA@....
000756AA 3134 19EE F122 2324 E3A3 CE01 06F4 9E83  14..."#$........
000756BA CA00 04D3 8897 F721 F599 8CCF 05F3 C694  .......!........
000756CA BD19 1BEE B2B3 1466 32DF C100 6556 2818  .......f2...eV(.


>m
000756DA 1141 4825 1A1F 1E20 F8F4 FC0D FFE9 F711  .AH%... ........
000756EA 06FD D2BC E1FB EFD6 A9BA EB03 F7BB BEFC  ................
000756FA F3FD 02D8 F903 0F2D 2B1C 1C17 4647 1B00  .......-+...FG..
0007570A 1E46 4A42 02EC 1A3A 5155 26FE 102D 2515  .FJB...:QU&..-%.
0007571A E3B9 F113 EFD1 CBC6 DEFB ECB3 8FB7 F501  ................
0007572A D0C0 C0CD E7F7 D8C1 BD05 41EC BCF6 405F  ..........A...@_
0007573A 28EB 0763 5A2B 1CFE 2166 4305 E2E3 4669  (..cZ+..!fC...Fi
0007574A 1101 130E 3802 E913 0F0A 01E7 EB0B 2D33  ....8.........-3
0007575A 19F0 F414 08F1 E4EE 180D EEEC F9F6 ECD4  ................
0007576A EE0B E2D1 DEFF 11E8 CCEF 0219 EEB3 CBF0  ................
0007577A FFF5 C7C9 F421 1FFA C7EA 301B E4BF D305  .....!....0.....
0007578A 1FFB D3C3 E113 2E0F CAC9 0F40 07C9 E220  ...........@...
0007579A 0C1D 06E2 0C25 1F20 1100 0E19 3B23 0C26  .....%. ....;#.&
000757AA 110F 3334 1B0D FE17 2720 FEDC E61F 330A  ..34....' ....3.
000757BA DAD0 FF31 3206 DEF8 2933 1FEA D614 2005  ...12...)3.... .
000757CA EFED 0701 EEF3 051C 15E1 E8FC 04FA F8D9  ................
000757DA EA03 F0D1 DFE4 1115 EAE5 0500 1B02 D606  ................
000757EA 1D15 20EF D1FB 2927 ECB9 C4EA FEEF DDE0  .. ...)'........
000757FA E3FA 00E0 EEF1 DDF7 05F7 E2EE F907 0BFF  ................
0007580A 0612 FC12 271C 3321 1B18 274E 4320 1F08  ....'.3!..'NC ..
>m
0007581A 0E2B 3023 09EF 0A25 1ED8 CEF9 2A1C D5C1  .+0#...%....*...
0007582A D505 15E7 B9CC E606 F5C4 B7E5 0800 BFA4  ................
0007583A CAF9 08FC DACB E400 EBC5 C1EB 1D19 F9DC  ................
0007584A DF06 2333 0D06 2C2C 3500 0038 493F 1D13  ..#3..,,5..8I?..
0007585A 2E42 453E 2D2F 543D 282A 1E2D 292C 260C  .BE>-/T=(*.-),&.
0007586A 1B15 F7EC FBFD E3CC D1F6 FAE1 D6E0 FAEA  ................
0007587A BFAB B0D3 F100 C7AC DA07 0DE0 B5C8 FC09  ................
0007588A F8C8 BEF7 191A 03F3 061A 2437 0DFB 163B  ..........$7...;
0007589A 4F20 EAF6 2B30 2118 261C 2021 05F7 F5EA  O ..+0!.&. !....
000758AA F5EC E5D6 C8E3 F1E0 D7DE DEF3 FBE0 D0E0  ................
000758BA EFF5 00F2 F6F4 E1F1 F907 00EB 0441 351F  .............A5.
000758CA 1C21 2A16 1D3C 2800 0037 3328 2F1E 0315  .!*..<(..73(/...
000758DA 111C FBCF CE02 1C0E D4BE DB00 0DDE AFBA  ................
000758EA EA0D F2CD D1FD 15F0 D5E8 0F26 1307 141C  ...........&....
000758FA 0CFD 1C2D 0D0B 1317 3232 0C05 1C34 2D18  ...-....22...4-.
0007590A 0208 2A2D 1BF3 D9FA 00DC CFD7 EA02 F8E7  ..*-............
0007591A ECFB FBF4 FB0A 0916 FBF8 0700 00F5 F6FC  ................
0007592A 09FE 0513 F8F5 00FF 00E0 CAD9 F6FB D8BB  ................
0007593A D904 06ED C8D8 0006 F3DE E601 0FFD E6E5  ................
0007594A 062B 0AEF 020E 22FC DDFD FC04 0BE1 EB1E  .+....".........

>m
0007595A 1802 F7EF 1537 19F4 F021 4021 FDF1 082D  .....7...!@!...-
0007596A 2F13 EEF7 2725 F7E2 0E21 190B 0802 0D06  /...'%...!......
0007597A 0200 FAEF FC00 08F9 0419 0AF9 F406 110F  ................
0007598A FBF6 FF00 0A10 0F02 0400 010D 1212 FAED  ................
0007599A 0512 05F0 FF12 06F2 E2E4 0004 F7EC E3EB  ................
000759AA FB05 00EF EDFB F702 0EFE F709 00F9 DED4  ................
000759BA F1FC F9EC E9EF EDF8 EAE2 F0F2 090B F9F8  ................
000759CA FC01 0B03 0B21 2913 FD08 1329 20FB 0325  .....!)....) ..%
000759DA 302A 1114 2723 0DFD 0B0D DAD4 ED0D 19EE  0*..'#..........
000759EA C9E7 0A12 ECCB DDF6 EEDA CBD3 E1E6 ECE9  ................
000759FA DEE3 F6F5 E3E1 F2FA FBFD F3EA ED03 1000  ................
00075A0A F502 1720 190E 1D27 2420 2432 3534 2C24  ... ...'$ $254,$
00075A1A 2A15 3945 2B13 0F28 3012 0408 1A0E 0317  *.9E+..(0.......
00075A2A 05E6 F204 06EF CEDC F4F5 DBD3 DBE3 C8D2  ................
00075A3A F3F1 DFCC D903 07F4 D1D5 FF0B F8DB E0FA  ................
00075A4A 0F0E FB00 0214 1E03 FF12 2D29 00FD 1B3C  ..........-)...<
00075A5A 23F5 EE24 371B F6FE 1819 06F4 E1EE 0903  #..$7...........
00075A6A E7CB CEEF 0DEC C6D7 F3F6 E6DE 01FC EDED  ................
00075A7A 020E 01FA F709 181C FA08 1F0D 070D 1411  ................
00075A8A 0312 2B23 00E9 0833 22F3 EC00 130A EBEB  ..+#...3".......
>m
00075A9A F1F0 FCF4 E1E1 F706 FADF E101 05FC FFF2  ................
00075AAA 030A 0C09 EDF3 0D15 1206 FA0D 1600 FD0F  ................
00075ABA 170C 110F 0100 140A 030A 0D11 1111 1808  ................
00075ACA 0A03 F6FF FEF6 ECEF EDF7 EFEE F5FE 02F7  ................
00075ADA F3F1 070F 03FC FC14 0FFF FD05 1410 02FB  ................
00075AEA F702 0B08 F7E7 F102 00E4 DBEB FEFA EDEF  ................
00075AFA EF09 02EF E8F3 050F FBEC E7F2 F8F8 F8F8  ................
00075B0A 07FE F602 FDFB 05FA FBF9 FA04 01F6 FDFD  ................
00075B1A 1017 02F9 0814 0EF9 0617 0F0E 0C0B 130C  ................
00075B2A 080E 1319 0F05 070C 1108 FAFF 01FA F3FA  ................
00075B3A 0007 02F8 060E 1907 0607 00FD FFFF FF00  ................
00075B4A 0203 FBFA FC06 0600 F306 0F04 0000 F4F9  ................
00075B5A 0C08 F2EA F608 08ED ED02 04FF F9F4 0709  ................
00075B6A FCFC F1F4 1210 FEF0 EEFE 01FD F0E3 E5F3  ................
00075B7A 06F1 DDED FE06 FCEB F40A 1201 EEFE 1309  ................
00075B8A 0003 0C0D 1413 1404 071F 2316 0000 1922  ..........#...."
00075B9A 0E02 FD00 0E03 F7F7 070B 01FA F1EB FCFD  ................
00075BAA ECE2 E6EF 01F1 DEE0 EEFC F2DE E7F2 FAEE  ................
00075BBA EAF3 0201 F4FB FAFF 01FF 0309 0907 FD0E  ................
00075BCA 1C15 0D09 1223 2116 0B0C 101A 1D0C 0917  .....#!.........
>


>m
00075BDA 1D18 140A 0B14 130A 0606 0600 F9FB FFFF  ................
00075BEA 00F4 EFF6 F3F1 E9F0 F8F0 F6F2 ECF2 FCF6  ................
00075BFA F1E6 E9FE 00E9 DAEE F8F9 F4E5 EEFC 0104  ................
00075C0A 00FF 0911 0E0C 080E 1316 1C15 0F0B 1222  ..............."
00075C1A 1701 0207 1316 01F6 F6FC 03F8 E8ED FC00  ................
00075C2A EEE2 E6F8 F4EB ECEA F7FE 0301 F8FD 05FB  ................
00075C3A 0006 0308 0509 0604 0D0D 0F0F 090A 1411  ................
00075C4A 0706 0905 FCF9 F5FA FEFC FCF7 F2EE F803  ................
00075C5A F5EE F200 0300 F4F3 FE09 07FF FE08 0E06  ................
00075C6A 0000 070B 0E09 0104 0B0C 0BFF FC07 1009  ................
00075C7A F9F5 FD08 08F9 F606 0E09 F8FA 0202 FBF3  ................
00075C8A FE02 F7FB 0507 FFF6 000E 09FD F6F9 0003  ................
00075C9A 0608 0703 FB08 0905 03FC FD05 FEFA FAFB  ................
00075CAA FBF7 F9FD FBF9 F4F8 FFF4 F3F8 FCFE FAF9  ................
00075CBA F9F7 F5FB 01FD F5F8 0009 04FC FA01 03FD  ................
00075CCA FE01 FFFF 0209 05FF FD06 1009 FCFF 080F  ................
00075CDA 0700 0109 0B00 FD05 0A07 01FC 0204 01FF  ................
00075CEA 0106 0300 FCFA FD04 0501 0103 0807 0401  ................
00075CFA 0000 0804 FCFA FB08 0BFD F7FD 070A 01FB  ................
00075D0A F900 0700 F8F9 FEFF FDF9 FC02 FDFC 0103  ................
>m
00075D1A FCFD 0003 0100 0104 FFFE 0305 00F9 FC02  ................
00075D2A 0500 F5F7 FEFC F9F8 F7FC FCFB FF00 FD00  ................
00075D3A 0301 FF00 0505 0703 0604 0508 0304 0706  ................
00075D4A 0504 FF02 0605 0202 0605 FCF8 0003 00FA  ................
00075D5A F7FD 00FD F9F7 FAFD FBF7 F7F8 FCFF FBFA  ................
00075D6A FC00 00FF FCFB FEFF FEFD FCFE 0101 0000  ................
00075D7A 0000 0406 0402 0202 0203 0405 0003 0A0B  ................
00075D8A 0601 0407 0805 0305 0302 0503 0004 0505  ................
00075D9A 0401 0304 0102 00FE 0002 02FF FEFE FEFE  ................
00075DAA FCFD FEFD FAF9 FCFC FBFA FBFA FBFC FCFA  ................
00075DBA F8FA FF00 FCFA FE03 0500 FE00 0405 0401  ................
00075DCA 0206 0805 0204 0605 0100 0100 FEFE FF00  ................
00075DDA FEFD FFFD FDFE FFFD FCFC FF00 00FE FE00  ................
00075DEA 0201 FF00 0202 0200 0001 0200 0000 0301  ................
00075DFA 0000 0102 0000 0001 0101 



; Sample 11
sample_file_11
                ; --------------------- Sound Sample 11 -------------------
                ; Start Address: $00075E04
                ; Name:          HITCAR
00075E04 464F 524D 0000  ..........FORM..
00075E0A 0756 3853 5658 5648 4452 0000 0014 0000  .V8SVXVHDR......
00075E1A 06F6 0000 0000 0000 0020 1775 0100 0001  ......... .u....
00075E2A 0000 4E41 4D45 0000 0014 4849 5443 4152  ..NAME....HITCAR
00075E3A 0000 0000 0000 0000 0000 0000 0000 414E  ..............AN
00075E4A 4E4F 0000 0014 4175 6469 6F20 4D61 7374  NO....Audio Mast