

                section panel,code_c
                org     $0                                          ; original load address


                ;--------------------- includes and constants ---------------------------
                INCDIR      "include"
                INCLUDE     "hw.i"


                ;-------------------------- title prg start -----------------------------
                ; The original binaries of the game start with a long word that points
                ; to an entry point of the code.
titleprg_start
        dc.l    $00004000                                       ; original start address $00004000


                ;----------------------------- entry point ------------------------------
entry_point
L00004000       bra.w   start_up                               ; jmp $00004180
L00004004       bra.w   L00004194
L00004008       bra.w   L000041e0
L0000400c       bra.w   L000041e0
L00004010       bra.w   L0000423e
L00004014       bra.w   L00004222
L00004018       bra.w   L000042f6


L0000401c       dc.w    $ffff
L0000401e       dc.w    $ffff
L00004020       dc.w    $8000
L00004022       dc.w    $0100
L00004024       dc.w    $8080
L00004026       dc.w    $0001, $ba1b
L0000402a       dc.w    $0001, $ba1e
L0000402e       dc.w    $0000, $0000
L00004032       dc.w    $0001, $ba41
L00004036       dc.w    $0500
L00004038       dc.w    $0001, $b9a6
L0000403c       dc.w    $0001, $b9aa
L00004040       dc.w    $0101
L00004042       dc.w    $0004, $fd00
L00004046       dc.w    $0000, $0000
L0000404a       dc.w    $0000, $0000
L0000404e       dc.w    $0000, $0000
L00004052       dc.w    $0000, $0000
L00004056       dc.w    $0000, $0000
L0000405a       dc.w    $0000, $0000
L0000405e       dc.w    $0000, $0038
L00004062       dc.w    $0000, $fb6c
L00004066       dc.w    $0666, $0000
L0000406a       dc.w    $4d3a
L0000406c       dc.w    $0001, $018f
L00004070       dc.w    $0000, $003a
L00004074       dc.w    $3a06
L00004076       dc.w    $0018, $0001
L0000407a       dc.w    $8050
L0000407c       dc.w    $0001, $ba27
L00004080       dc.w    $0001, $ba28
L00004084       dc.w    $0000, $0000
L00004088       dc.w    $0001, $bb55 
L0000408c       dc.w    $0100
L0000408e       dc.w    $0001, $b9ac
L00004092       dc.w    $0001, $b9ae

L00004096       dc.w    $0101
L00004098       dc.w    $0001, $1e00
L0000409c       dc.w    $0000, $0000
L000040a0       dc.w    $0000, $0000
L000040a4       dc.w    $0000, $0000
L000040a8       dc.w    $0000, $0000
L000040ac       dc.w    $0000, $0000
L000040b0       dc.w    $0000, $0000
L000040b4       dc.w    $0000, $0018
L000040b8       dc.w    $0000, $ca18
L000040bc       dc.w    $0a28, $0000, $4d3a
L000040c2       dc.w    $0001, $01bf
L000040c6       dc.w    $001e, $0018
L000040ca       dc.w    $1800
L000040cc       dc.w    $0006, $0002
L000040d0       dc.w    $8010
L000040d2       dc.w    $0001, $ba2a
L000040d6       dc.w    $0001, $ba2b
L000040da       dc.w    $0000, $0000
L000040de       dc.w    $0001, $bbae
L000040e2       dc.w    $0100
L000040e4       dc.w    $0001, $b9ac
L000040e8       dc.w    $0001, $b9ae
L000040ec       dc.w    $0101
L000040ee       dc.w    $0001, $1e00
L000040f2       dc.w    $0000, $0000
L000040f6       dc.w    $0000, $0000
L000040fa       dc.w    $0000, $0000
L000040fe       dc.w    $0000, $0000
L00004102       dc.w    $0000, $0000
L00004106       dc.w    $0000, $0000
L0000410a       dc.w    $0000, $0011
L0000410e       dc.w    $0000, $ed94
L00004112       dc.w    $06b8, $0000, $4d3a, $0001
L0000411a       dc.w    $00d3
L0000411c       dc.w    $001e, $001e
L00004120       dc.w    $1e00
L00004122       dc.w    $000c
L00004124       dc.w    $0004, $8084

L00004128       dc.w    $0001, $ba34
L0000412c       dc.w    $0001, $ba37
L00004130       dc.w    $0000, $0000
L00004134       dc.w    $0001, $ba41
L00004138       dc.w    $0500
L0000413a       dc.w    $0001, $b9b4
L0000413e       dc.w    $0001, $b9bb
L00004142       dc.w    $0101
L00004144       dc.w    $0001, $ff00
L00004148       dc.w    $0000, $0000
L0000414c       dc.w    $0000, $0000
L00004150       dc.w    $0000, $0000
L00004154       dc.w    $0000, $0000
L00004158       dc.w    $0000, $0103
L0000415c       dc.w    $1400
L0000415e       dc.w    $0605, $0006
L00004162       dc.w    $003e
L00004164       dc.w    $0001, $14ca
L00004168       dc.w    $11d6, $0001
L0000416c       dc.w    $2de0
L0000416e       dc.w    $054b, $0279
L00004172       dc.w    $0000, $0038
L00004176       dc.w    $3800
L00004178       dc.w    $0018, $0008
L0000417c       dc.w    $0000, $0d69



                ;----------------------------- entry point ------------------------------
start_up                                                        ; original routine address $00004180
L00004180       lea.l   default_sample_data                     ; L00004d52,a0
L00004186       lea.l   instrument_data,a1                      ; L00004bfa,a1
L0000418c       bsr.w   initialise_music                        ; calls L000049cc
L00004190       bra.w   L00004194

L00004194       movem.l d0/a0-a1,-(a7)
L00004198       move.b  #$00,L00004022
L0000419e       move.b  #$00,L00004023
L000041a4       lea.l   $4024,a0
L000041a8       lea.l   $00dff0a8,a1
L000041ae       bsr.b   L000041c2
L000041b0       bsr.b   L000041c2
L000041b2       bsr.b   L000041c2
L000041b4       bsr.b   L000041c2
L000041b6       move.w  #$0000,L00004020
L000041bc       movem.l (a7)+,d0/a0-a1
L000041c0       rts                                             ; Where does this go? whats on the stack?



L000041c2       move.w  #$0000,(a0)
L000041c6       move.w  #$0001,(a0,$004a)
L000041cc       move.w  #$0000,(a0,$004c)
L000041d2       move.w  #$0000,(a1)
L000041d6       adda.w  #$0056,a0
L000041da       adda.w  #$0010,a1
L000041de       rts




L000041e0       movem.l d0/d7/a0-a2,-(a7)
L000041e4       subq.w  #$01,d0
L000041e6       bmi.b   L000041ee
L000041e8       cmp.w   #$0003,d0
L000041ec       bcs.b   L000041f2
L000041ee       bsr.b   L00004194
L000041f0       bra.b   L0000421c
L000041f2       lea.l   L0001b9dc,a2
L000041f8       asl.w   #$03,d0
L000041fa       adda.w  d0,a2
L000041fc       lea.l   L00004024,a0
L00004200       lea.l   $00dff0a8,a1
L00004206       moveq   #$03,d7
L00004208       tst.w   (a2)+
L0000420a       bne.b   L00004216
L0000420c       adda.w  #$0056,a0
L00004210       adda.w  #$0010,a1
L00004214       bra.b   L00004218
L00004216       bsr.b   L000041c2
L00004218       dbf.w   d7,L00004208
L0000421c       movem.l (a7)+,d0/d7/a0-a2
L00004220       rts


L00004222       tst.w   L00004126
L00004226       beq.b   L0000422e
L00004228       cmp.b   L00004023,d0
L0000422c       bcs.b   L0000423c
L0000422e       movem.l d0/d7/a0-a2,-(a7)
L00004232       move.w  #$4000,d1
L00004236       move.b  d0,L00004023
L0000423a       bra.b   L0000424a
L0000423c       rts



L0000423e       movem.l d0/d7/a0-a2,-(a7)
L00004242       move.w  #$8000,d1
L00004246       move.b  d0,$4022
L0000424a       clr.w   L0000417e
L0000424e       subq.w  #$01,d0
L00004250       bmi.b   L00004258
L00004252       cmp.w   #$0003,d0
L00004256       bcs.b   L00004260
L00004258       bsr.w   L00004194
L0000425c       bra.w   L000042f0
L00004260       lea.l   L0001b9dc,a0
L00004266       asl.w   #$03,d0
L00004268       adda.w  d0,a0
L0000426a       lea.l   L00004024,a1
L0000426e       moveq   #$03,d7
L00004270       move.w  (a0)+,d0
L00004272       beq.b   L000042e4
L00004274       lea.l   (a0,d0,$fe),a2
L00004278       moveq   #$00,d0
L0000427a       move.w  d0,(a1,$004c)
L0000427e       move.l  d0,(a1,$0002)
L00004282       move.l  d0,(a1,$000a)
L00004286       move.b  d0,(a1,$0013)
L0000428a       move.b  #$01,(a1,$0012)
L00004290       move.w  d1,(a1)
L00004292       move.b  (a2)+,d0
L00004294       bpl.b   L000042c8
L00004296       sub.b   #$80,d0
L0000429a       bne.b   L000042aa
L0000429c       movea.l (a1,$0002),a2
L000042a0       cmpa.w  #$0000,a2
L000042a4       bne.b   L00004292
L000042a6       clr.w   (a1)
L000042a8       bra.b   L000042e4
L000042aa       subq.b  #$01,d0
L000042ac       bne.b   L000042b4
L000042ae       move.l  a2,(a1,$0002)
L000042b2       bra.b   L00004292
L000042b4       subq.b  #$01,d0
L000042b6       bne.b   L000042be
L000042b8       move.b  (a2)+,(a1,$0013)
L000042bc       bra.b   L00004292
L000042be       subq.b  #$01,d0
L000042c0       bne.b   L00004292
L000042c2       move.b  (a2)+,(a1,$0012)
L000042c6       bra.b   L00004292
L000042c8       move.l  a2,(a1,$0006)
L000042cc       lea.l   $0001ba06,a2
L000042d2       ext.w   d0
L000042d4       add.w   d0,d0
L000042d6       adda.w  d0,a2
L000042d8       adda.w  (a2),a2
L000042da       move.l  a2,(a1,$000e)
L000042de       move.w  #$0001,(a1,$0052)
L000042e4       lea.l   (a1,$0056),a1
L000042e8       dbf.w   d7,L00004270
L000042ec       or.w    d1,$4020
L000042f0       movem.l (a7)+,d0/d7/a0-a2
L000042f4       rts


L000042f6       lea.l   $00dff000,a6
L000042fc       lea.l   $00004bba,a5
L00004302       clr.w   L0000417c
L00004306       tst.w   L00004020
L0000430a       beq.b   L00004354
L0000430c       addq.w  #$01,$417e
L00004310       clr.w   L00004020
L00004314       lea.l   L00004024,a4
L00004318       move.w  (a4),d7
L0000431a       beq.b   L00004324
L0000431c       bsr.b   L00004360
L0000431e       move.w  d7,(a4)
L00004320       or.w    d7,L00004020
L00004324       lea.l   L0000407a,a4
L00004328       move.w  (a4),d7
L0000432a       beq.b   L00004334
L0000432c       bsr.b   L00004360
L0000432e       move.w  d7,(a4)
L00004330       or.w    d7,L00004020
L00004334       lea.l   L000040d0,a4
L00004338       move.w  (a4),d7
L0000433a       beq.b   L00004344
L0000433c       bsr.b   L00004360
L0000433e       move.w  d7,(a4)
L00004340       or.w    d7,L00004020
L00004344       lea.l   L00004126,a4
L00004348       move.w  (a4),d7
L0000434a       beq.b   L00004354
L0000434c       bsr.b   L00004360
L0000434e       move.w  d7,(a4)
L00004350       or.w    d7,L00004020
L00004354       and.w   #$c000,L00004020
L0000435a       bsr.w   L00004852
L0000435e       rts


L00004360       tst.w   (a4,$0052)
L00004364       beq.w   L000046b2
L00004368       subq.w  #$01,(a4,$0052)
L0000436c       bne.w   L000046b2
L00004370       movea.l (a4,$000e),a3
L00004374       bclr.l  #$0007,d7
L00004378       move.b  (a3)+,d0
L0000437a       bpl.w   L00004560
L0000437e       bclr.l  #$0003,d7
L00004382       cmp.b   #$a0,d0
L00004386       bcc.b   L00004378
L00004388       lea.l   (pc,$0014),a0
L0000438c       sub.b   #$80,d0
L00004390       ext.w   d0
L00004392       add.w   d0,d0
L00004394       adda.w  d0,a0
L00004396       move.w  (a0),d0
L00004398       beq.b   L00004378
L0000439a       jmp     (a0,d0,$00)


L0000439e       dc.w $0040
L000043a0       dc.w $00ba 
L000043a2       dc.w $00c0        
L000043a4       dc.w $00c2        
L000043a6       dc.w $00c4        
L000043a8       dc.w $00ce        
L000043aa       dc.w $00d4
L000043ac       dc.w $00dc        
L000043ae       dc.w $00ea
L000043b0       dc.w $00f8
L000043b2       dc.w $010a
L000043b4       dc.w $0140
L000043b6       dc.w $0156
L000043b8       dc.w $010c
L000043ba       dc.w $0132
L000043bc       dc.w $0158
L000043be       dc.w $016e
L000043c0       dc.w $0000
L000043c2       dc.w $0000
L000043c4       dc.w $0000
L000043c6       dc.w $0000
L000043c8       dc.w $0000
L000043ca       dc.w $0000
L000043cc       dc.w $0000
L000043ce       dc.w $0000
L000043d0       dc.w $0000
L000043d2       dc.w $0000
L000043d4       dc.w $0000
L000043d6       dc.w $0000
L000043d8       dc.w $0000
L000043da       dc.w $0000
L000043dc       dc.w $0000




L000043de       movea.l $000a(a4),a3
L000043e2       cmpa.w  #$0000,a3
L000043e6       bne.b   L00004378
L000043e8       movea.l $0006(a4),a3
L000043ec       move.b  -$0001(a3),d0
L000043f0       subq.b  #$01,(a4,$0012)
L000043f4       bne.b   L00004444
L000043f6       move.b  #$01,$0012(a4)
L000043fc       move.b  #$00,$0013(a4)
L00004402       move.b  (a3)+,d0
L00004404       bpl.b   L00004444
L00004406       sub.b   #$80,d0
L0000440a       bne.b   L00004426
L0000440c       movea.l $0002(a4),a3
L00004410       cmpa.w  #$0000,a3
L00004414       bne.b   L00004402
L00004416       move.w  #$0001,$004a(a4)
L0000441c       move.w  #$0000,$004c(a4)
L00004422       moveq   #$00,d7
L00004424       rts  



00004426 5300                     subq.b #$01,d0
00004428 6606                     bne.b #$06 == $00004430 (F)
0000442a 294b 0002                move.l a3,(a4,$0002) == $0000155a [00000000]
0000442e 60d2                     bra.b #$d2 == $00004402 (T)
00004430 5300                     subq.b #$01,d0
00004432 6606                     bne.b #$06 == $0000443a (F)
00004434 195b 0013                move.b (a3)+ [4e],(a4,$0013) == $0000156b [00]
00004438 60c8                     bra.b #$c8 == $00004402 (T)
0000443a 5300                     subq.b #$01,d0
0000443c 66c4                     bne.b #$c4 == $00004402 (F)
0000443e 195b 0012                move.b (a3)+ [4e],(a4,$0012) == $0000156a [00]
00004442 60be                     bra.b #$be == $00004402 (T)
00004444 294b 0006                move.l a3,(a4,$0006) == $0000155e [00000000]
00004448 47f9 0001 ba06           lea.l $0001ba06,a3
0000444e 4880                     ext.w d0
00004450 d040                     add.w d0,d0
00004452 d6c0                     adda.w d0,a3
00004454 d6d3                     adda.w (a3) [4e75],a3
00004456 6000 ff20                bra.w #$ff20 == $00004378 (T)
0000445a 294b 000a                move.l a3,(a4,$000a) == $00001562 [00000000]
0000445e 6000 ff18                bra.w #$ff18 == $00004378 (T)
00004462 6000 ff14                bra.w #$ff14 == $00004378 (T)
00004466 6000 ff10                bra.w #$ff10 == $00004378 (T)
0000446a 08c7 0005                bset.l #$0005,d7
0000446e 195b 0051                move.b (a3)+ [4e],(a4,$0051) == $000015a9 [00]
00004472 6000 ff04                bra.w #$ff04 == $00004378 (T)


00004476 0887 0005                bclr.l #$0005,d7
0000447a 6000 fefc                bra.w #$fefc == $00004378 (T)
0000447e 066c 0100 0052           add.w #$0100,(a4,$0052) == $000015aa [0000]
00004484 6000 fef2                bra.w #$fef2 == $00004378 (T)
00004488 0887 0004                bclr.l #$0004,d7
0000448c 08c7 0007                bset.l #$0007,d7
00004490 426c 004c                clr.w (a4,$004c) == $000015a4 [0000]
00004494 6000 0206                bra.w #$0206 == $0000469c (T)
00004498 08c7 0003                bset.l #$0003,d7
0000449c 195b 0024                move.b (a3)+ [4e],(a4,$0024) == $0000157c [00]
000044a0 195b 0025                move.b (a3)+ [4e],(a4,$0025) == $0000157d [00]
000044a4 6000 fed2                bra.w #$fed2 == $00004378 (T)
000044a8 0247 fff8                and.w #$fff8,d7
000044ac 08c7 0000                bset.l #$0000,d7
000044b0 195b 0021                move.b (a3)+ [4e],(a4,$0021) == $00001579 [00]
000044b4 195b 0022                move.b (a3)+ [4e],(a4,$0022) == $0000157a [00]
000044b8 6000 febe                bra.w #$febe == $00004378 (T)
000044bc 0887 0000                bclr.l #$0000,d7
000044c0 6000 feb6                bra.w #$feb6 == $00004378 (T)
000044c4 0247 fff8                and.w #$fff8,d7
000044c8 08c7 0001                bset.l #$0001,d7
000044cc 41f9 0001 b986           lea.l $0001b986,a0
000044d2 7000                     moveq #$00,d0
000044d4 101b                     move.b (a3)+ [4e],d0
000044d6 d040                     add.w d0,d0
000044d8 d0c0                     adda.w d0,a0
000044da d0d0                     adda.w (a0) [236b],a0
000044dc 1958 0032                move.b (a0)+ [23],(a4,$0032) == $0000158a [00]
000044e0 1958 0030                move.b (a0)+ [23],(a4,$0030) == $00001588 [00]
000044e4 2948 0028                move.l a0,(a4,$0028) == $00001580 [00000000]
000044e8 6000 fe8e                bra.w #$fe8e == $00004378 (T)

000044ec 0887 0001                bclr.l #$0001,d7
000044f0 6000 fe86                bra.w #$fe86 == $00004378 (T)
000044f4 0247 fff8                and.w #$fff8,d7
000044f8 08c7 0002                bset.l #$0002,d7
000044fc 195b 0036                move.b (a3)+ [4e],(a4,$0036) == $0000158e [00]
00004500 195b 0034                move.b (a3)+ [4e],(a4,$0034) == $0000158c [00]
00004504 195b 0035                move.b (a3)+ [4e],(a4,$0035) == $0000158d [00]
00004508 6000 fe6e                bra.w #$fe6e == $00004378 (T)

0000450c 0887 0002                bclr.l #$0002,d7
00004510 6000 fe66                bra.w #$fe66 == $00004378 (T)
00004514 41f9 0001 b98c           lea.l $0001b98c,a0
0000451a 7000                     moveq #$00,d0
0000451c 101b                     move.b (a3)+,d0
0000451e d040                     add.w d0,d0
00004520 d0c0                     adda.w d0,a0
00004522 d0d0                     adda.w (a0),a0
00004524 2948 0014                move.l a0,(a4,$0014) 
00004528 6000 fe4e                bra.w #$fe4e == $00004378 (T)

0000452c 41f9 0000 4bea           lea.l $00004bea,a0
00004532 7000                     moveq #$00,d0
00004534 101b                     move.b (a3)+ [4e],d0
00004536 e940                     asl.w #$04,d0
00004538 d0c0                     adda.w d0,a0
0000453a 3958 003c                move.w (a0)+ [236b],(a4,$003c) == $00001594 [0000]
0000453e 2958 003e                move.l (a0)+ [236b0126],(a4,$003e) == $00001596 [00000000]
00004542 3958 0042                move.w (a0)+ [236b],(a4,$0042) == $0000159a [0000]
00004546 2958 0044                move.l (a0)+ [236b0126],(a4,$0044) == $0000159c [00000000]
0000454a 3958 0048                move.w (a0)+ [236b],(a4,$0048) == $000015a0 [0000]
0000454e 0887 0006                bclr.l #$0006,d7
00004552 4a50                     tst.w (a0) [236b]
00004554 6700 fe22                beq.w #$fe22 == $00004378 (T)
00004558 08c7 0006                bset.l #$0006,d7
0000455c 6000 fe1a                bra.w #$fe1a == $00004378 (T)
00004560 0807 0006                btst.l #$0006,d7
00004564 6604                     bne.b #$04 == $0000456a (F)
00004566 d02c 0013                add.b (a4,$0013) == $0000156b [00],d0
0000456a 1940 004f                move.b d0,(a4,$004f) == $000015a7 [00]
0000456e 0807 0000                btst.l #$0000,d7
00004572 670a                     beq.b #$0a == $0000457e (T)
00004574 d02c 0021                add.b (a4,$0021) == $00001579 [00],d0
00004578 196c 0022 0023           move.b (a4,$0022) == $0000157a [00],(a4,$0023) == $0000157b [00]
0000457e 1940 0050                move.b d0,(a4,$0050) == $000015a8 [00]
00004582 4880                     ext.w d0
00004584 906c 003c                sub.w (a4,$003c) == $00001594 [0000],d0
00004588 d040                     add.w d0,d0
0000458a b07c ffd0                cmp.w #$ffd0,d0
0000458e 6d06                     blt.b #$06 == $00004596 (F)
00004590 b07c 002c                cmp.w #$002c,d0
00004594 6f16                     ble.b #$16 == $000045ac (T)
00004596 122c 004f                move.b (a4,$004f) == $000015a7 [00],d1
0000459a 142c 0050                move.b (a4,$0050) == $000015a8 [00],d2
0000459e 362c 003c                move.w (a4,$003c) == $00001594 [0000],d3
000045a2 382c 0054                move.w (a4,$0054) == $000015ac [0000],d4
000045a6 246c 0006                movea.l (a4,$0006) == $0000155e [00000000],a2
000045aa 4afc                     illegal
000045ac 3975 0000 004a           move.w (a5,d0.W,$00) == $00c014b6 [00c0],(a4,$004a) == $000015a2 [0000]
000045b2 0807 0002                btst.l #$0002,d7
000045b6 675a                     beq.b #$5a == $00004612 (T)
000045b8 102c 0050                move.b (a4,$0050) == $000015a8 [00],d0


000045bc d02c 0034                add.b (a4,$0034) == $0000158c [00],d0
000045c0 4880                     ext.w d0
000045c2 906c 003c                sub.w (a4,$003c) == $00001594 [0000],d0
000045c6 d040                     add.w d0,d0
000045c8 b07c ffd0                cmp.w #$ffd0,d0
000045cc 6d06                     blt.b #$06 == $000045d4 (F)
000045ce b07c 002c                cmp.w #$002c,d0
000045d2 6f16                     ble.b #$16 == $000045ea (T)
000045d4 122c 004f                move.b (a4,$004f) == $000015a7 [00],d1
000045d8 142c 0050                move.b (a4,$0050) == $000015a8 [00],d2
>d
000045dc 362c 003c                move.w (a4,$003c) == $00001594 [0000],d3
000045e0 382c 0054                move.w (a4,$0054) == $000015ac [0000],d4
000045e4 246c 0006                movea.l (a4,$0006) == $0000155e [00000000],a2
000045e8 4afc                     illegal
000045ea 3035 0000                move.w (a5,d0.W,$00) == $00c014b6 [00c0],d0
000045ee 906c 004a                sub.w (a4,$004a) == $000015a2 [0000],d0
000045f2 e240                     asr.w #$01,d0
000045f4 48c0                     ext.l d0
000045f6 122c 0035                move.b (a4,$0035) == $0000158d [00],d1
000045fa 4881                     ext.w d1
>d
000045fc 81c1                     divs.w d1,d0
000045fe 3940 003a                move.w d0,(a4,$003a) == $00001592 [0000]
00004602 1941 0039                move.b d1,(a4,$0039) == $00001591 [00]
00004606 d201                     add.b d1,d1
00004608 1941 0038                move.b d1,(a4,$0038) == $00001590 [00]
0000460c 196c 0036 0037           move.b (a4,$0036) == $0000158e [00],(a4,$0037) == $0000158f [00]
00004612 0807 0003                btst.l #$0003,d7
00004616 6750                     beq.b #$50 == $00004668 (T)
00004618 102c 0050                move.b (a4,$0050) == $000015a8 [00],d0
0000461c d02c 0024                add.b (a4,$0024) == $0000157c [00],d0
>d
00004620 4880                     ext.w d0
00004622 906c 003c                sub.w (a4,$003c) == $00001594 [0000],d0
00004626 d040                     add.w d0,d0
00004628 b07c ffd0                cmp.w #$ffd0,d0
0000462c 6d06                     blt.b #$06 == $00004634 (F)
0000462e b07c 002c                cmp.w #$002c,d0
00004632 6f16                     ble.b #$16 == $0000464a (T)
00004634 122c 004f                move.b (a4,$004f) == $000015a7 [00],d1
00004638 142c 0050                move.b (a4,$0050) == $000015a8 [00],d2
0000463c 362c 003c                move.w (a4,$003c) == $00001594 [0000],d3
>d
00004640 382c 0054                move.w (a4,$0054) == $000015ac [0000],d4
00004644 246c 0006                movea.l (a4,$0006) == $0000155e [00000000],a2
00004648 4afc                     illegal
0000464a 3035 0000                move.w (a5,d0.W,$00) == $00c014b6 [00c0],d0
0000464e 906c 004a                sub.w (a4,$004a) == $000015a2 [0000],d0
00004652 48c0                     ext.l d0
00004654 7200                     moveq #$00,d1
00004656 122c 0025                move.b (a4,$0025) == $0000157d [00],d1
0000465a 81c1                     divs.w d1,d0
0000465c 3940 0026                move.w d0,(a4,$0026) == $0000157e [0000]


00004660 4440                     neg.w d0
00004662 c1c1                     muls.w d1,d0
00004664 916c 004a                sub.w d0,(a4,$004a) == $000015a2 [0000]
00004668 0807 0001                btst.l #$0001,d7
0000466c 6712                     beq.b #$12 == $00004680 (T)
0000466e 197c 0001 0033           move.b #$01,(a4,$0033) == $0000158b [00]
00004674 296c 0028 002c           move.l (a4,$0028) == $00001580 [00000000],(a4,$002c) == $00001584 [00000000]
0000467a 196c 0030 0031           move.b (a4,$0030) == $00001588 [00],(a4,$0031) == $00001589 [00]
00004680 08c7 0004                bset.l #$0004,d7
00004684 296c 0014 0018           move.l (a4,$0014) == $0000156c [00000000],(a4,$0018) == $00001570 [00000000]
>d
0000468a 397c 0001 001e           move.w #$0001,(a4,$001e) == $00001576 [0000]
00004690 426c 004c                clr.w (a4,$004c) == $000015a4 [0000]
00004694 302c 0054                move.w (a4,$0054) == $000015ac [0000],d0
00004698 8178 417c                or.w d0,$417c [0000]
0000469c 7000                     moveq #$00,d0
0000469e 102c 0051                move.b (a4,$0051) == $000015a9 [00],d0
000046a2 0807 0005                btst.l #$0005,d7
000046a6 6602                     bne.b #$02 == $000046aa (F)
000046a8 101b                     move.b (a3)+ [4e],d0
000046aa d16c 0052                add.w d0,(a4,$0052) == $000015aa [0000]
>d
000046ae 294b 000e                move.l a3,(a4,$000e) == $00001566 [00000000]
000046b2 0807 0007                btst.l #$0007,d7
000046b6 6600 0198                bne.w #$0198 == $00004850 (F)
000046ba 302c 004a                move.w (a4,$004a) == $000015a2 [0000],d0
000046be 0807 0003                btst.l #$0003,d7
000046c2 6712                     beq.b #$12 == $000046d6 (T)
000046c4 532c 0025                subq.b #$01,(a4,$0025) == $0000157d [00]
000046c8 6604                     bne.b #$04 == $000046ce (F)
000046ca 0887 0003                bclr.l #$0003,d7
000046ce 906c 0026                sub.w (a4,$0026) == $0000157e [0000],d0
>d
000046d2 6000 00d4                bra.w #$00d4 == $000047a8 (T)
000046d6 0807 0000                btst.l #$0000,d7
000046da 6746                     beq.b #$46 == $00004722 (T)
000046dc 532c 0023                subq.b #$01,(a4,$0023) == $0000157b [00]
000046e0 6400 00c6                bcc.w #$00c6 == $000047a8 (T)
000046e4 102c 004f                move.b (a4,$004f) == $000015a7 [00],d0
000046e8 122c 0050                move.b (a4,$0050) == $000015a8 [00],d1
000046ec 1940 0050                move.b d0,(a4,$0050) == $000015a8 [00]
000046f0 4880                     ext.w d0
000046f2 906c 003c                sub.w (a4,$003c) == $00001594 [0000],d0
>d
000046f6 d040                     add.w d0,d0
000046f8 b07c ffd0                cmp.w #$ffd0,d0
000046fc 6d06                     blt.b #$06 == $00004704 (F)
000046fe b07c 002c                cmp.w #$002c,d0
00004702 6f16                     ble.b #$16 == $0000471a (T)
00004704 122c 004f                move.b (a4,$004f) == $000015a7 [00],d1
00004708 142c 0050                move.b (a4,$0050) == $000015a8 [00],d2
0000470c 362c 003c                move.w (a4,$003c) == $00001594 [0000],d3
00004710 382c 0054                move.w (a4,$0054) == $000015ac [0000],d4
00004714 246c 0006                movea.l (a4,$0006) == $0000155e [00000000],a2



00004718 4afc                     illegal
0000471a 3035 0000                move.w (a5,d0.W,$00) == $00c014b6 [00c0],d0
0000471e 6000 0088                bra.w #$0088 == $000047a8 (T)
00004722 0807 0001                btst.l #$0001,d7
00004726 675c                     beq.b #$5c == $00004784 (T)
00004728 532c 0033                subq.b #$01,(a4,$0033) == $0000158b [00]
0000472c 667a                     bne.b #$7a == $000047a8 (F)
0000472e 206c 002c                movea.l (a4,$002c) == $00001584 [00000000],a0
00004732 1018                     move.b (a0)+ [23],d0
00004734 532c 0031                subq.b #$01,(a4,$0031) == $00001589 [00]
>d
00004738 660a                     bne.b #$0a == $00004744 (F)
0000473a 206c 0028                movea.l (a4,$0028) == $00001580 [00000000],a0
0000473e 196c 0030 0031           move.b (a4,$0030) == $00001588 [00],(a4,$0031) == $00001589 [00]
00004744 2948 002c                move.l a0,(a4,$002c) == $00001584 [00000000]
00004748 196c 0032 0033           move.b (a4,$0032) == $0000158a [00],(a4,$0033) == $0000158b [00]
0000474e d02c 0050                add.b (a4,$0050) == $000015a8 [00],d0
00004752 4880                     ext.w d0
00004754 906c 003c                sub.w (a4,$003c) == $00001594 [0000],d0
00004758 d040                     add.w d0,d0
0000475a b07c ffd0                cmp.w #$ffd0,d0
>d
0000475e 6d06                     blt.b #$06 == $00004766 (F)
00004760 b07c 002c                cmp.w #$002c,d0
00004764 6f16                     ble.b #$16 == $0000477c (T)
00004766 122c 004f                move.b (a4,$004f) == $000015a7 [00],d1
0000476a 142c 0050                move.b (a4,$0050) == $000015a8 [00],d2
0000476e 362c 003c                move.w (a4,$003c) == $00001594 [0000],d3
00004772 382c 0054                move.w (a4,$0054) == $000015ac [0000],d4
00004776 246c 0006                movea.l (a4,$0006) == $0000155e [00000000],a2
0000477a 4afc                     illegal
0000477c 3035 0000                move.w (a5,d0.W,$00) == $00c014b6 [00c0],d0
>d
00004780 6000 0026                bra.w #$0026 == $000047a8 (T)
00004784 0807 0002                btst.l #$0002,d7
00004788 671e                     beq.b #$1e == $000047a8 (T)
0000478a 532c 0037                subq.b #$01,(a4,$0037) == $0000158f [00]
0000478e 6418                     bcc.b #$18 == $000047a8 (T)
00004790 522c 0037                addq.b #$01,(a4,$0037) == $0000158f [00]
00004794 532c 0039                subq.b #$01,(a4,$0039) == $00001591 [00]
00004798 660a                     bne.b #$0a == $000047a4 (F)
0000479a 446c 003a                neg.w (a4,$003a) == $00001592 [0000]
0000479e 196c 0038 0039           move.b (a4,$0038) == $00001590 [00],(a4,$0039) == $00001591 [00]
000047a4 d06c 003a                add.w (a4,$003a) == $00001592 [0000],d0
000047a8 3940 004a                move.w d0,(a4,$004a) == $000015a2 [0000]
000047ac 0807 0004                btst.l #$0004,d7
000047b0 6700 009e                beq.w #$009e == $00004850 (T)
000047b4 536c 001e                subq.w #$01,(a4,$001e) == $00001576 [0000]
000047b8 6600 0080                bne.w #$0080 == $0000483a (F)
000047bc 206c 0018                movea.l (a4,$0018) == $00001570 [00000000],a0
000047c0 7000                     moveq #$00,d0
000047c2 1018                     move.b (a0)+ [23],d0
000047c4 6742                     beq.b #$42 == $00004808 (T)
000047c6 6b1a                     bmi.b #$1a == $000047e2 (F)
000047c8 3940 001e                move.w d0,(a4,$001e) == $00001576 [0000]
000047cc 197c 0001 001c           move.b #$01,(a4,$001c) == $00001574 [00]
000047d2 197c 0001 001d           move.b #$01,(a4,$001d) == $00001575 [00]
000047d8 1958 0020                move.b (a0)+ [23],(a4,$0020) == $00001578 [00]
000047dc 2948 0018                move.l a0,(a4,$0018) == $00001570 [00000000]
000047e0 6058                     bra.b #$58 == $0000483a (T)
000047e2 4400                     neg.b d0
000047e4 3940 001e                move.w d0,(a4,$001e) == $00001576 [0000]
000047e8 197c 0001 0020           move.b #$01,(a4,$0020) == $00001578 [00]
000047ee 1018                     move.b (a0)+ [23],d0
000047f0 6a06                     bpl.b #$06 == $000047f8 (T)
000047f2 4400                     neg.b d0
000047f4 442c 0020                neg.b (a4,$0020) == $00001578 [00]
000047f8 1940 001c                move.b d0,(a4,$001c) == $00001574 [00]
000047fc 197c 0001 001d           move.b #$01,(a4,$001d) == $00001575 [00]
00004802 2948 0018                move.l a0,(a4,$0018) == $00001570 [00000000]
00004806 6032                     bra.b #$32 == $0000483a (T)
00004808 1010                     move.b (a0) [23],d0
0000480a 670a                     beq.b #$0a == $00004816 (T)
0000480c 6a02                     bpl.b #$02 == $00004810 (T)
0000480e 4400                     neg.b d0
00004810 906c 0052                sub.w (a4,$0052) == $000015aa [0000],d0
00004814 6b06                     bmi.b #$06 == $0000481c (F)
00004816 0887 0004                bclr.l #$0004,d7
0000481a 6034                     bra.b #$34 == $00004850 (T)
0000481c 4440                     neg.w d0
0000481e 3940 001e                move.w d0,(a4,$001e) == $00001576 [0000]
00004822 197c 0000 001c           move.b #$00,(a4,$001c) == $00001574 [00]
00004828 197c 0000 001d           move.b #$00,(a4,$001d) == $00001575 [00]
0000482e 197c 0000 0020           move.b #$00,(a4,$0020) == $00001578 [00]
00004834 2948 0018                move.l a0,(a4,$0018) == $00001570 [00000000]
00004838 6016                     bra.b #$16 == $00004850 (T)
0000483a 532c 001d                subq.b #$01,(a4,$001d) == $00001575 [00]
0000483e 6610                     bne.b #$10 == $00004850 (F)
00004840 196c 001c 001d           move.b (a4,$001c) == $00001574 [00],(a4,$001d) == $00001575 [00]
00004846 102c 0020                move.b (a4,$0020) == $00001578 [00],d0
0000484a 4880                     ext.w d0
0000484c d16c 004c                add.w d0,(a4,$004c) == $000015a4 [0000]
00004850 4e75                     rts  == $00fc072a




00004852 3038 417c                move.w $417c [0000],d0
00004856 676e                     beq.b #$6e == $000048c6 (T)
00004858 3d40 0096                move.w d0,(a6,$0096) == $00c03b3a [0100]
0000485c 3200                     move.w d0,d1
0000485e ef49                     lsl.w #$07,d1
00004860 3d41 009c                move.w d1,(a6,$009c) == $00c03b40 [0000]
00004864 7400                     moveq #$00,d2
00004866 7601                     moveq #$01,d3
00004868 0800 0000                btst.l #$0000,d0
0000486c 6708                     beq.b #$08 == $00004876 (T)
0000486e 3d43 00a6                move.w d3,(a6,$00a6) == $00c03b4a [0000]
00004872 3d42 00aa                move.w d2,(a6,$00aa) == $00c03b4e [0000]
00004876 0800 0001                btst.l #$0001,d0
0000487a 6708                     beq.b #$08 == $00004884 (T)
0000487c 3d43 00b6                move.w d3,(a6,$00b6) == $00c03b5a [ff3e]
00004880 3d42 00ba                move.w d2,(a6,$00ba) == $00c03b5e [00fd]
00004884 0800 0002                btst.l #$0002,d0
00004888 6708                     beq.b #$08 == $00004892 (T)
0000488a 3d43 00c6                move.w d3,(a6,$00c6) == $00c03b6a [00fd]
0000488e 3d42 00ca                move.w d2,(a6,$00ca) == $00c03b6e [4ef9]
00004892 0800 0003                btst.l #$0003,d0
00004896 6708                     beq.b #$08 == $000048a0 (T)
00004898 3d43 00d6                move.w d3,(a6,$00d6) == $00c03b7a [4ef9]
0000489c 3d42 00da                move.w d2,(a6,$00da) == $00c03b7e [fedc]
000048a0 342e 001e                move.w (a6,$001e) == $00c03ac2 [0000],d2
000048a4 c441                     and.w d1,d2
000048a6 b441                     cmp.w d1,d2
000048a8 66f6                     bne.b #$f6 == $000048a0 (F)
000048aa 7402                     moveq #$02,d2
000048ac 362e 0006                move.w (a6,$0006) == $00c03aaa [39c8],d3
000048b0 0243 ff00                and.w #$ff00,d3
000048b4 382e 0006                move.w (a6,$0006) == $00c03aaa [39c8],d4
000048b8 0244 ff00                and.w #$ff00,d4
000048bc b644                     cmp.w d4,d3
000048be 67f4                     beq.b #$f4 == $000048b4 (T)
000048c0 3604                     move.w d4,d3
000048c2 51ca fff0                dbf .w d2,#$fff0 == $000048b4 (F)
000048c6 3238 401c                move.w $401c [ffff],d1
000048ca 3438 401e                move.w $401e [ffff],d2
000048ce 41f8 4024                lea.l $4024,a0
000048d2 3601                     move.w d1,d3
000048d4 0810 0006                btst.b #$0006,(a0) [23]
000048d8 6702                     beq.b #$02 == $000048dc (T)
000048da 3602                     move.w d2,d3
000048dc c668 004c                and.w (a0,$004c) == $00fe9762 [2269],d3
000048e0 3d43 00a8                move.w d3,(a6,$00a8) == $00c03b4c [0000]
000048e4 3d68 004a 00a6           move.w (a0,$004a) == $00fe9760 [2051],(a6,$00a6) == $00c03b4a [0000]
000048ea 0800 0000                btst.l #$0000,d0
000048ee 670e                     beq.b #$0e == $000048fe (T)
000048f0 3d68 0042 00a4           move.w (a0,$0042) == $00fe9758 [2040],(a6,$00a4) == $00c03b48 [0000]
000048f6 2d68 003e 00a0           move.l (a0,$003e) == $00fe9754 [23400004],(a6,$00a0) == $00c03b44 [00c03b06]
000048fc 600c                     bra.b #$0c == $0000490a (T)

000048fe 3d68 0048 00a4           move.w (a0,$0048) == $00fe975e [2209],(a6,$00a4) == $00c03b48 [0000]
00004904 2d68 0044 00a0           move.l (a0,$0044) == $00fe975a [20894e75],(a6,$00a0) == $00c03b44 [00c03b06]
0000490a 41f8 407a                lea.l $407a,a0
0000490e 3601                     move.w d1,d3
00004910 0810 0006                btst.b #$0006,(a0) [23]
00004914 6702                     beq.b #$02 == $00004918 (T)
00004916 3602                     move.w d2,d3
00004918 c668 004c                and.w (a0,$004c) == $00fe9762 [2269],d3
0000491c 3d43 00b8                move.w d3,(a6,$00b8) == $00c03b5c [4ef9]
00004920 3d68 004a 00b6           move.w (a0,$004a) == $00fe9760 [2051],(a6,$00b6) == $00c03b5a [ff3e]
00004926 0800 0001                btst.l #$0001,d0
0000492a 670e                     beq.b #$0e == $0000493a (T)
0000492c 3d68 0042 00b4           move.w (a0,$0042) == $00fe9758 [2040],(a6,$00b4) == $00c03b58 [00fd]
00004932 2d68 003e 00b0           move.l (a0,$003e) == $00fe9754 [23400004],(a6,$00b0) == $00c03b54 [fc6a4ef9]
00004938 600c                     bra.b #$0c == $00004946 (T)
0000493a 3d68 0048 00b4           move.w (a0,$0048) == $00fe975e [2209],(a6,$00b4) == $00c03b58 [00fd]
00004940 2d68 0044 00b0           move.l (a0,$0044) == $00fe975a [20894e75],(a6,$00b0) == $00c03b54 [fc6a4ef9]
00004946 41f8 40d0                lea.l $40d0,a0
0000494a 3601                     move.w d1,d3
0000494c 0810 0006                btst.b #$0006,(a0) [23]
00004950 6702                     beq.b #$02 == $00004954 (T)
00004952 3602                     move.w d2,d3
00004954 c668 004c                and.w (a0,$004c) == $00fe9762 [2269],d3
00004958 3d43 00c8                move.w d3,(a6,$00c8) == $00c03b6c [ff14]
0000495c 3d68 004a 00c6           move.w (a0,$004a) == $00fe9760 [2051],(a6,$00c6) == $00c03b6a [00fd]
00004962 0800 0002                btst.l #$0002,d0
00004966 670e                     beq.b #$0e == $00004976 (T)
00004968 3d68 0042 00c4           move.w (a0,$0042) == $00fe9758 [2040],(a6,$00c4) == $00c03b68 [4ef9]
0000496e 2d68 003e 00c0           move.l (a0,$003e) == $00fe9754 [23400004],(a6,$00c0) == $00c03b64 [00fdff26]
00004974 600c                     bra.b #$0c == $00004982 (T)
00004976 3d68 0048 00c4           move.w (a0,$0048) == $00fe975e [2209],(a6,$00c4) == $00c03b68 [4ef9]
0000497c 2d68 0044 00c0           move.l (a0,$0044) == $00fe975a [20894e75],(a6,$00c0) == $00c03b64 [00fdff26]
00004982 41f8 4126                lea.l $4126,a0
00004986 3601                     move.w d1,d3
00004988 0810 0006                btst.b #$0006,(a0) [23]
0000498c 6702                     beq.b #$02 == $00004990 (T)
0000498e 3602                     move.w d2,d3
00004990 c668 004c                and.w (a0,$004c) == $00fe9762 [2269],d3
00004994 3d43 00d8                move.w d3,(a6,$00d8) == $00c03b7c [00fd]
00004998 3d68 004a 00d6           move.w (a0,$004a) == $00fe9760 [2051],(a6,$00d6) == $00c03b7a [4ef9]
0000499e 0800 0003                btst.l #$0003,d0
000049a2 670e                     beq.b #$0e == $000049b2 (T)
000049a4 3d68 0042 00d4           move.w (a0,$0042) == $00fe9758 [2040],(a6,$00d4) == $00c03b78 [feee]
000049aa 2d68 003e 00d0           move.l (a0,$003e) == $00fe9754 [23400004],(a6,$00d0) == $00c03b74 [4ef900fd]
000049b0 600c                     bra.b #$0c == $000049be (T)
000049b2 3d68 0048 00d4           move.w (a0,$0048) == $00fe975e [2209],(a6,$00d4) == $00c03b78 [feee]
000049b8 2d68 0044 00d0           move.l (a0,$0044) == $00fe975a [20894e75],(a6,$00d0) == $00c03b74 [4ef900fd]
000049be 0040 8000                or.w #$8000,d0
000049c2 3d40 0096                move.w d0,(a6,$0096) == $00c03b3a [0100]
000049c6 4278 417c                clr.w $417c [0000]
000049ca 4e75                     rts  == $00fc072a



                ;------------------- initislise music samples --------------------
                ; extract sample data ptrs and lengths from the IFF sample
                ; data.
                ;
                ; IN: a0    - music sample table address $4D52 - default_sample_data
                ; IN: a1    - music/song instrument data $4BFA - instrument_data
                ;
initialise_music                                        ; original routine address L000049cc
                move.l  (a0)+,d0                        ; d0 = sound sample byte offset
                beq.b   .exit                           ; if d0 == 0 then exit
                move.w  (a0)+,(a1)                      ; copy sample volume
                move.w  (a0)+,$000e(a1)                 ; copy param value2 (unknown, 0 or -1)
                move.l  a0,-(a7)                        ; save a0 - incremented ptr to stack
                                                        ; d0 is offset to data within the structure
                lea.l   $f8(a0,d0.l),a0                 ; a0 = ptr to start of iff sample 'FORM' structure.
                move.l  $0004(a0),d0                    ; d0 = Length of 'FORM' data structure (sample data)
                addq.l  #$08,d0                         ; d0 = alter length to include 'FORM' and length header value, d0 = total file len from A0.
                bsr.w   process_instrument              ; calls L000049ec
                movea.l (a7)+,a0                        ; a0 = next sample table entry
                bra.b   initialise_music                ; jmp L000049cc ; loop for next sample data.
.exit
                rts     



                ; ------------------ process instrument  ----------------
                ; IN: A0 = ptr to start of 'FORM' block of sample data.
                ; IN: A1 = ptr to Instrument Entry in Music Data.
                ; IN: D0 = length of sample including headers.
                ;
process_instrument                                      ; original routine address L000049ec
                move.l  a1,-(a7)                        ; Save ptr to Instrument Details
                bsr.w   process_sample_data             ; calls L00004a30
                movea.l (a7)+,a1                        ; Restore ptr to Instrument Details
                addaq.l #$02,a1                         ; a1 = skip first param value (volume) offset 0-1
                movea.l sample_vhdl_ptr,a0              ; L00004b3e,a0
                move.l  (a0)+,d0                        ; d0 = sample length length
                bclr.l  #$0000,d0                       ; d0 = make length even
                move.l  (a0)+,d1                        ; d1 = sample repeat length 
                bclr.l  #$0000,d1                       ; d1 = make repeat length even
                movea.l sample_body_ptr,a0              ; a0 = start of sample data, $00004b64,a0
                move.l  a0,(a1)+                        ; store sample start address in instrument table offset 2-5
                adda.l  d0,a0                           ; a0 = start of repeat section of sample
                add.l   d1,d0                           ; d0 = total length of sample + repeat
                lsr.l   #$01,d0                         ; d0 = count of word length
                move.w  d0,(a1)+                        ; store sample length (words) in table offset 6-7
                tst.l   d1                              ; test repeat length
                bne.b   .set_repeat
.no_repeat
                lea.l   silient_repeat,a0               ; $00004d3a,a0 ; set default 0 value for silent repeat
                moveq   #$02,d1                         ; set single word length for silent repeat.
.set_repeat
                move.l  a0,(a1)+                        ; set repeat start address in table offset 8 - 11
                lsr.l   #$01,d1                         ; d1 = repeat length (words)
                move.w  d1,(a1)+                        ; set repeat length (words) in table offset 12-13
                addaq.l #$02,a1                         ; update instrument table ptr (skip param 2 - unknown 0 or -1 value) - 14-15
                rts  



                ;------------------ process sample data --------------------------
                ; Walks through the IFF 8SVX file format, storing the pointers to
                ; the BODY and VHDL chunks in the variables.
                ;
                ; Also, sets the error/status 'sample_status' - 0 = success
                ;
                ; IN: A0 = ptr to start of 'FORM' or 'CAT ' block of sample data.
                ; IN: A1 = ptr to Instrument Entry in Music Data.
                ; IN: D0 = length of sample including headers.
                ;
sample_status                                   ; original variable address L00004a2e
                dc.w    $0000                   ; error/status flag
                                                ; 1 = missing FORM/CAT chunk
                                                ; 2 = missing 8SVX chunk

process_sample_data                             ; original routine address L00004a30
                clr.w   sample_status           ; L00004a2e 
                movem.l d0/a0,-(a7)
                bra.w   process_inner_chunk
process_inner_chunk
                tst.l   d0                      ; test sample length
                beq.b   .exit
                move.l  (a0)+,d1                ; d1 = Chunk Name
                subq.l  #$04,d0                 ; d0 = remaining bytes
                bsr.w   process_sample_chunk    ; calls L00004a50 ; process iff chunks
                bra.b   process_inner_chunk     ; jmp L00004a3c ; loop while data remaining
.exit
                movem.l (a7)+,d0/a0
                rts



                ;------------------ process sample chunk ------------------
                ; process IFF sample data, top level of file structure.
                ;
                ; IN: A0 = ptr to length of data.
                ; IN: A1 = ptr to Instrument Entry in Music Data.
                ; IN: D0 = length of sample including headers.
                ; IN: D1.l = chunk identifier, e.g. FORM, CAT etc
                ;
process_sample_chunk                            ; original routine address L00004a50
                cmp.l   'FORM',d1               ; #$464f524d,d1
                beq.w   process_form_chunk      ; jmp L00004aac ; process FORM chunk
                cmp.l   'CAT ',d1               ; #$43415420,d1
                beq.w   process_cat_chunk       ; jmp L00004a6e ; process CAT chunk
                move.w  #$0001,sample_status    ; L00004a2e ; error status flag?
                clr.l   d0                      ; clear remaining byte length
                rts



                ;--------------------- process CAT chunk --------------------------
                ; skips header and continues processing inner chunk data.
                ;
                ; IN: A0 = ptr to length of chunk data.
                ; IN: A1 = ptr to Instrument Entry in Music Data.
                ; IN: D0 = length of outer chunk.
                ; IN: D1.l = chunk identifier, e.g. FORM, CAT etc
                ;
process_cat_chunk                               ; original routine address L00004a6e
                movem.l d0/a0,-(a7)
                move.l  (a0)+,d0                ; d0 = chunk length
                move.l  d0,d1                   ; d1 = chunk length
                btst.l  #$0000,d1               ; test odd/even length
                beq.b   .no_pad_byte            ; is even, no pad byte
.add_pad_byte
                addq.l  #$01,d1                 ; is odd, add pad byte
.no_pad_byte
                addq.l  #$04,d1                 ; add length field to chunk len
                add.l   d1,$0004(a7)            ; update address ptr on stack (end of chunk)
                sub.l   d1,(a7)                 ; subtract chunk length from remaining bytes on stack
                addq.l  #$04,(a0)
                subq.l  #$04,d0                 ; subtract remaining bytes
                bra.b   process_inner_chunk     ; jmp L00004a3c



                ;------------------- process LIST chunk -----------------
                ; skip the list chunk, and continue processing
                ;
                ; IN: A0 = ptr to length of data.
                ; IN: A1 = ptr to Instrument Entry in Music Data.
                ; IN: D0 = length of remaining data.
                ; IN: D1.l = chunk identifier, e.g. FORM, CAT etc
                ;
process_list_chunk
                movem.l d0/a0,-(a7)
                move.l  (a0)+,d0
                move.l  d0,d1
                btst.l  #$0000,d1
                beq.b   .no_pad_byte
.add_pad_byte
                addq.l  #$01,d1
.no_pad_byte
                addq.l  #$04,d1
                add.l   d1,$0004(a7)
                sub.l   d1,(a7)
                nop
                movem.l (a7)+,d0/a0
                rts



                ;---------------- process FORM chunk ------------------
                ; Expects to find an '8SVX' inner chunk of data.
                ; If not, then sets error/status flag = $0002
                ;
                ; IN: A0 = ptr to length of data.
                ; IN: A1 = ptr to Instrument Entry in Music Data.
                ; IN: D0 = length of sample including headers.
                ; IN: D1.l = chunk identifier, e.g. FORM, CAT etc
                ;
process_form_chunk                              ; original routine address L00004aac
                movem.l d0/a0,-(a7)
                move.l  (a0)+,d0                ; d0 = length of FORM data
                move.l  d0,d1                   ; d1 = length of FORM data
                btst.l  #$0000,d1               ; check of length is odd
                beq.b   .n o_pad_byte           ; even length (no pad byte required)
.add_pad_byte
                addq.l  #$01,d1                 ; odd length (add pad byte)
.no_pad_byte
                addq.l  #$04,d1                 ; add length field to chunk len
                add.l   d1,,$0004(a7)           ; update address ptr on stack (end of chunk)
                sub.l   d1,(a7)                 ; subtract chunk length from remaining bytes on stack
                move.l  (a0)+,d1                ; d1 = inner chunk identifer
                subq.l  #$04,d0                 ; d0 = updated remaining bytes
                cmp.l   '8SVX',d1               ; #$38535658,d1
                beq.w   process_8svx_chunk      ; jmp L00004ade ; process 8SVX chunk
                move.w  #$0002,sample_status    ; L00004a2e ; error/status flag
                movem.l (a7)+,d0/a0
                rts



                ;------------------ process 8SVX chunk ---------------------
                ; loops through sample data until no bytes remaining.
                ; processes inner chunks of 8SVX chunk, including:-
                ;  - VHDL, BODY, NAME, ANNO
                ;
                ; IN: A0 = ptr to length of data.
                ; IN: A1 = ptr to Instrument Entry in Music Data.
                ; IN: D0 = length of remaining data.
                ; IN: D1.l = chunk identifier, e.g. FORM, CAT etc
                ;
process_8svx_chunk
                tst.l   d0                              ; test end of sample data
                beq.b   .exit                           ; if so, then exit
                move.l  (a0)+,d1                        ; d1 = inner chunk identifier
                subq.l  #$04,d0                         ; d0 = updated remaining bytes
                bsr.w   process_inner_8svx_chunk        ; calls $00004af2
                bra.b   process_8svx_chunk              ; jmp L00004ade ; loop until no bytes remaining.
.exit
                movem.l (a7)+,d0/a0                     ; exit
                rts



                ;---------------- process inner 8SVX chunk --------------
                ; process data held inside the 8SVX chunk, this is only
                ; concerned with the VHDL and BODY chunks. it skips
                ; other chunks such as the NAME, ANNO meta data chunks.
                ;
                ; IN: A0 = ptr to length of data.
                ; IN: A1 = ptr to Instrument Entry in Music Data.
                ; IN: D0 = length of remaining data.
                ; IN: D1.l = chunk identifier, e.g. FORM, CAT etc
                ;
process_inner_8svx_chunk                                ; original routine address L00004af2
                cmp.l   'FORM',d1                       ;#$464f524d,d1
                beq.b   process_form_chunk              ; jmp L00004aac
                cmp.l   'LIST',d1                       ;#$4c495354,d1
                beq.b   process_list_chunk              ; jmp L00004a8c
                cmp.l   'CAT ',d1                       ;#$43415420,d1
                beq.w   process_cat_chunk               ; jmp L00004a6e
                cmp.l   'VHDL',d1                       ;#$56484452,d1
                beq.w   process_vhdl_chunk              ; jmp L00004b42
                cmp.l   'BODY',d1                       ;#$424f4459,d1
                beq.w   process_body_chunk              ; L00004b68
.skip_unused_chunks
                movem.l d0/a0,-(a7)
                move.l  (a0)+,d0
                move.l  d0,d1
                btst.l  #$0000,d1
                beq.b   .no_pad_byte
.add_pad_byte
                addq.l  #$01,d1
.no_pad_byte
                addq.l  #$04,d1
                add.l   d1,$0004(a7)
                sub.l   d1,(a7)
                movem.l (a7)+,d0/a0
                rts



                ;-------------------- process VHDL chunk ----------------------
                ; stores address of VHDL chunk in variable 'sample_vhdl_ptr'
                ;
                ; IN: A0 = ptr to length of data.
                ; IN: A1 = ptr to Instrument Entry in Music Data.
                ; IN: D0 = length of remaining data.
                ; IN: D1.l = chunk identifier, e.g. FORM, CAT etc
                ;
sample_vhdl_ptr                                 ; original var address L00004b3e
                dc.l    $00017F66               ; original address L00004b3e

process_vhdl_chunk                              ; original address L00004b42
                movem.l d0/a0,-(a7)
                move.l  (a0)+,d0                ; d0 = length of chunk
                move.l  d0,d1                   ; d1 = length of chunk
                btst.l  #$0000,d1               ; is pad byte required (odd length)
                beq.b   .no_pad_byte            ; no pad byte (length is even)
.add_pad_byte
                addq.l  #$01,d1                 ; add pad byte (make length even)
.no_pad_byte
                addq.l  #$04,d1                 ; update chunk length (include length field)
                add.l   d1,$0004(a7)            ; update A0 data ptr on stack (end of chunk)
                sub.l   d1,(a7)                 ; update d0 remaining data on stack
                move.l  a0,sample_vhdl_ptr      ; L00004b3e ; store address of VHDL chunk
                movem.l (a7)+,d0/a0
                rts



                ;------------------------- process body chunk ------------------------
                ; store address of the raw sample data in variable 'sample_body_ptr'
                ;
                ; IN: A0 = ptr to length of data.
                ; IN: A1 = ptr to Instrument Entry in Music Data.
                ; IN: D0 = length of remaining data.
                ; IN: D1.l = chunk identifier, e.g. FORM, CAT etc
                ;
sample_body_ptr                                 ; original var address L0004b64
                dc.l    $00017FBA               ; body data ptr (raw sample data)

process_body_chunk                              ; original routine address L0004b68
                movem.l d0/a0,-(a7)
                move.l  (a0)+,d0                ; d0 = body length
                move.l  d0,d1                   ; d1 = body length
                btst.l  #$0000,d1               ; check for odd length
                beq.b   .no_pad_byte            ; even length (no pad byte)
.add_pad_byte
                addq.l  #$01,d1
.no_pad_byte
                addq.l  #$04,d1                 ; update chunk length (include length field)
                add.l   d1,$0004(a7)            ; update A0 data ptr on stack (end of chunk)
                sub.l   d1,(a7)                 ; update d0 remaining data on stack
                move.l  a0,sample_body_ptr      ; L0004b64 ; store address of raw sample data
                movem.l (a7)+,d0/a0
                rts



                ; unknown data
L00004B8A       dc.w  $06FE, $0699, $063B, $05E1, $058D, $053D, $04F2, $04AB          ;.....;.....=....
L00004B9A       dc.w  $0467, $0428, $03EC, $03B4, $037F, $034D, $031D, $02F1          ;.g.(.......M....
L00004BAA       dc.w  $02C6, $029E, $0279, $0255, $0234, $0214, $01F6, $01DA          ;.....y.U.4......
L00004BBA       dc.w  $01BF, $01A6, $018F, $0178, $0163, $014F, $013C, $012B        ;.......x.c.O.<.+
L00004BCA       dc.w  $011A, $010A, $00FB, $00ED, $00E0, $00D3, $00C7, $00BC          ;................
L00004BDA       dc.w  $00B2, $00A8, $009E, $0095, $008D, $0085, $007E, $0077          ;.............~.w
L00004BEA       dc.w  $0021, $0000, $4D3C, $000B, $0000, $4D3C, $000B, $0000          ;.!..M<....M<....



                ;---------------- music data, maybe instrument data ------------------
                ; I think each 16 bytes represents data describing a sound/instrument.
                ; There are 12 samples in the Sample Data and 12 entries below.
                ; THe table below could have room for 20 or 21 entries (only 12 in use)
                ; the parameters from the SampleTable below @ $00004D52 'default_sample_data' 
                ; are copied into this table.
                ;
                ;       - The 16bit value offset 4 of each sample is copied to offset 0 of this table.
                ;       - The 16bit value offset 6 of each sample is copied to offset $e (14) of this table.
                ;
                ; I guess that this may be reseting values for the insrument volume (param 1)
                ; and a second param (unsure, values either 0, or -1). could be a repeat value 
                ; or something similar.
                ;
                ; I think the following table is used during the playing of the song(s),
                ; and keeps track of the instrument settings for each sample 
                ; (which may change during the playhing of the song?)
                ;
                ; I think the following format.
                ;
                ; Offset        | Size          | Description
                ;---------------+---------------+-----------------------------------------
                ; 0             | 2             | I think default sample volume
                ; 2             | 4             | Sample Data Start Address
                ; 6             | 2             | Sample Length in Words
                ; 8             | 4             | Sample Repeat Start Address
                ; 12            | 2             | Sample Repeat Length in Words
                ; 14            | 2             | Unknown Parameter, values either 0 or -1
                ;
instrument_data                                                                 ; original address L00004BFA
.instrument_01  dc.w  $0018, $0000, $4E1E, $1C5C, $0000, $4D3A, $0001, $0000    ; original address L00004BFA
.instrument_02  dc.w  $0018, $0000, $873E, $1703, $0000, $4D3A, $0001, $0000    ; original address L00004C0A
.instrument_03  dc.w  $000C, $0000, $B5AC, $0A02, $0000, $4D3A, $0001, $FFFF    ; original address L00004C1A
.instrument_04  dc.w  $0018, $0000, $CA18, $0A28, $0000, $4D3A, $0001, $FFFF    ; original address L00004C2A
.instrument_05  dc.w  $0030, $0000, $DED0, $012B, $0000, $4D3A, $0001, $FFFF    ; original address L00004C3A
.instrument_06  dc.w  $0032, $0000, $E18E, $05CF, $0000, $4D3A, $0001, $FFFF  ; original address L00004C4A
.instrument_07  dc.w  $0011, $0000, $ED94, $06B8, $0000, $4D3A, $0001, $0000    ; original address L00004C5A
.instrument_08  dc.w  $0038, $0000, $FB6C, $0666, $0000, $4D3A, $0001, $0000    ; original address L00004C6A
.instrument_09  dc.w  $0014, $0001, $08A0, $05E1, $0000, $4D3A, $0001, $0000    ; original address L00004C7A
.instrument_10  dc.w  $003E, $0001, $14CA, $11D6, $0001, $2DE0, $054B, $0000    ; original address L00004C8A
.instrument_11  dc.w  $0018, $0001, $38DE, $233A, $0000, $4D3A, $0001, $0000    ; original address L00004C9A
.instrument_12  dc.w  $0018, $0001, $7FBA, $1CE6, $0000, $4D3A, $0001, $0000    ; original address L00004CAA
.instrument_13  dc.w  $0000, $0000, $0000, $0000, $0000, $0000, $0000, $0000    ; original address L00004CBA
.instrument_14  dc.w  $0000, $0000, $0000, $0000, $0000, $0000, $0000, $0000    ; original address L00004CCA
.instrument_15  dc.w  $0000, $0000, $0000, $0000, $0000, $0000, $0000, $0000    ; original address L00004CDA
.instrument_16  dc.w  $0000, $0000, $0000, $0000, $0000, $0000, $0000, $0000    ; original address L00004CEA
.instrument_17  dc.w  $0000, $0000, $0000, $0000, $0000, $0000, $0000, $0000    ; original address L00004CFA
.instrument_18  dc.w  $0000, $0000, $0000, $0000, $0000, $0000, $0000, $0000    ; original address L00004D0A
.instrument_19  dc.w  $0000, $0000, $0000, $0000, $0000, $0000, $0000, $0000    ; original address L00004D1A
.instrument_20  dc.w  $0000, $0000, $0000, $0000, $0000, $0000, $0000, $0000    ; original address L00004D2A

silient_repeat                                                                  ; original address L00004D3A
                dc.w  $0000                                                     ; repeat data for end of non-repeating samples (2 bytes)

                ; -- unknown data values (11 words/22 bytes)
L00004D3C       dc.w  $0074, $60DC, $82BB, $457E, $24A0, $8C00, $7460
L00004D4A       dc.w  $DC82, $BB45, $7E24, $A08C



                ; ------ music sample data table (12 sample offsets & 2 word params) ------
                ; 12 sound samples in IFF 8SVX format.
                ; Table of address offsets below, not sure what the additional two 16 bit 
                ; parameters that follow the offset represent yet. maybe volume and something else.
                ;
                                                                                ; Offset Calc   | Start       | Name           | End
default_sample_data                                                             ;---------------+-------------+----------------+----------
.data_01        dc.w  $0000, $0064, $0018, $0000                                ; $4D52 + $0064 = $00004DB6   - WHATRU         - $000086D6
.data_02        dc.w  $0000, $397C, $0018, $0000                                ; $4D5A + $3972 = $000086D6   - IMBATMAN       - $0000B544 
.data_03        dc.w  $0000, $67E2, $000C, $FFFF                                ; $4D62 + $67E2 = $0000B544   - HITBASS-C1     - $0000C9B0
.data_04        dc.w  $0000, $7C46, $0018, $FFFF                                ; $4D6A + $7C46 = $0000C9B0   - HITSNARE-C2    - $0000DE68 
.data_05        dc.w  $0000, $90F6, $0030, $FFFF                                ; $4D72 + $90F6 = $0000DE68   - KIT-HIHAT-C4   - $0000E126
.data_06        dc.w  $0000, $93AC, $0032, $FFFF                                ; $4D7A + $93AC = $0000E126   - KIT-OPENHAT-D4 - $0000ED2C
.data_07        dc.w  $0000, $9FAA, $0011, $0000                                ; $4D82 + $9FAA = $0000ED2C   - BASS2-F        - $0000FB04
.data_08        dc.w  $0000, $AD7A, $0038, $0000                                ; $4D8A + $AD7A = $0000FB04   - TIMELESS-GS    - $00010838
.data_09        dc.w  $0000, $BAA6, $0014, $0000                                ; $4D92 + $BAA6 = $00010838   - TIMEBASS-GS    - $00011462
.data_10        dc.w  $0000, $C6C8, $003E, $0000                                ; $4D9A + $C6C8 = $00011462   - CRUNCHGUITAR-C4- $00013876
.data_11        dc.w  $0000, $EAD4, $0018, $0000                                ; $4DA2 + $EAD4 = $00013876   - LAUGH          - $00017F52
.data_12        dc.w  $0001, $31A8, $0018, $0000                              ; $4DAA + $131A8 = $00017F52  - IWANNA         - $0001B986
.data_end       dc.w  $0000, $0000                                              ; 0 marks the end of sample table data



                ; --------------------- Sound Sample 1 -------------------
                ; Start Address: $00004DB6
                ; End Address:   $000086D5
                ; Name:          WHATRU 
                ; sample_01:     original address $00004DB6
                include "./music/sample_01.s"


                ; --------------------- Sound Sample 2 -------------------
                ; Start Address: $000086D6
                ; End Address:   $0000B543
                ; Name:          IMBATMAN 
                ; sample_02:     ; original address $000086D6
                include "./music/sample_02.s"


                ; --------------------- Sound Sample 3 -------------------
                ; Start Address: $0000B544
                ; End Address:   $0000C9AF
                ; Name:          HITBASS-C1
                ; sample_03      ; original address $0000B544
                include "./music/sample_03.s"


                ; --------------------- Sound Sample 4 -------------------
                ; Start Address: $0000C9B0
                ; End Address:   $0000DE67
                ; Name:          HITSNARE-C2
                ; sample_04     ; original address $0000C9B0
                include "./music/sample_04.s"


                ; --------------------- Sound Sample 5 -------------------
                ; Start Address: $0000DE68
                ; End Address:   $0000E125
                ; Name:          KIT-HIHAT-C4 
                ; sample_05      ; original address $0000DE68
                include "./music/sample_05.s"
                
                
                ; --------------------- Sound Sample 6 -------------------
                ; Start Address: $0000E126
                ; End Address:   $0000ED2B
                ; Name:          KIT-OPENHAT-D4
                ; sample_06      ; original address $0000E126
                include "./music/sample_06.s"

                

                ; --------------------- Sound Sample 7 -------------------
                ; Start Address: $0000ED2C
                ; End Address:   $0000FB04
                ; Name:          BASS2-F
                ; sample_07      ; original address $0000ED2C
                include "./music/sample_07.s"

                
                ; --------------------- Sound Sample 8 -------------------
                ; Start Address: $0000FB04
                ; End Address:   $00010837
                ; Name:          TIMELESS-GS
                ; sample_08      ; original address $0000FB04
                include "./music/sample_08.s"


                ; --------------------- Sound Sample 9 -------------------
                ; Start Address: $00010838
                ; End Address:   $00011461
                ; Name:          TIMEBASS-GS
                ; sample_09      ; original address $00010838
                include "./music/sample_09.s"
                
                
                ; --------------------- Sound Sample 10 -------------------
                ; Start Address: $00011462
                ; End Address:   $00013875
                ; Name:          CRUNCHGUITAR-C4
                ; sample_10      ; original address $00011462
                include "./music/sample_10.s"


                ; --------------------- Sound Sample 11 -------------------
                ; Start Address: $00013876
                ; End Address:   $00017F51
                ; Name:          LAUGH
                ; sample_11      ; original address $00013876
                include "./music/sample_11.s"


                ; --------------------- Sound Sample 12 -------------------
                ; Start Address: $00017F52
                ; End Address:   $0001B985
                ; Name:          IWANNA
                ; sample_12      ; original address $00017F52
                include "./music/sample_12.s"

                ; ------------- end of sample data ---------------



L0001B986 dc.w $0002, $0202                                                     ;................
L0001B98A dc.w $000C, $0014, $0018, $001C, $001E, $0020, $0025, $002B           ;........... .%.+
L0001B99A dc.w $0031, $0037, $0039, $013C, $1EFE, $0000, $0119, $08FD           ;.1.7.9.<........
L0001B9AA dc.w $0000, $011E, $0000, $013E, $0000, $020F, $07FF, $000A           ;.......>........
L0001B9BA dc.w $FF01, $1902, $F605, $FF00, $0001, $190B, $FE01, $FE00           ;................
L0001B9CA dc.w $0001, $2A14, $FE01, $FE00, $0001, $3E00, $0001, $3200           ;..*.......>...2.
L0001B9DA dc.w $0000, $003E, $0048, $0049, $0051, $0000, $0000, $0000           ;...>.H.I.Q......
L0001B9EA dc.w $000A, $0000, $0000, $0000, $0004, $0780, $0880, $900B           ;................
L0001B9FA dc.w $8F03, $1896, $8090, $0C8F, $0318, $9680, $0038, $003A           ;.............8.:
L0001BA0A dc.w $0081, $0156, $01A3, $01BC, $01CF, $FFE4, $FFE9, $0222           ;...V..........."
L0001BA1A dc.w $8183, $0800, $0101, $0101, $8308, $0080, $8102, $8081           ;................
L0001BA2A dc.w $0303, $0303, $0303, $0606, $8081, $8308, $0004, $0505           ;................
L0001BA3A dc.w $8308, $0080, $8587, $6080, $8F01, $9008, $8E8C, $8406           ;......`.........
L0001BA4A dc.w $383A, $3F38, $3A3F, $383A, $3F38, $3A3F, $383A, $3F38           ;8:?8:?8:?8:?8:?8
L0001BA5A dc.w $3A3F, $383A, $3F38, $3A3F, $383A, $3F38, $3A3F, $383A           ;:?8:?8:?8:?8:?8:
L0001BA6A dc.w $3F38, $3A3F, $383A, $3F38, $3A3F, $383A, $3F38, $3A3F           ;?8:?8:?8:?8:?8:?
L0001BA7A dc.w $383A, $3F38, $3A3F, $383A, $3F38, $3A3F, $383A, $3F3A           ;8:?8:?8:?8:?8:?:
L0001BA8A dc.w $808F, $0290, $030C, $0690, $0540, $0690, $0641, $0690           ;.........@...A..
L0001BA9A dc.w $0540, $0690, $0418, $0C90, $0641, $0C90, $030C, $0690           ;.@.......A......
L0001BAAA dc.w $0540, $0690, $0641, $0690, $0540, $0690, $0418, $0C90           ;.@...A...@......
L0001BABA dc.w $0641, $0690, $0540, $0690, $030C, $0690, $0540, $0690           ;.A...@.......@..
L0001BACA dc.w $0641, $0690, $0540, $0690, $0418, $0C90, $0641, $0C90           ;.A...@.......A..
L0001BADA dc.w $030C, $0690, $0540, $0690, $0641, $0690, $0540, $0690           ;.....@...A...@..
L0001BAEA dc.w $0418, $0C90, $0641, $0690, $0418, $0690, $030C, $0690           ;.....A..........
L0001BAFA dc.w $0540, $0690, $0641, $0690, $0540, $0690, $0418, $0C90           ;.@...A...@......
L0001BB0A dc.w $0641, $0C90, $030C, $0690, $0540, $0690, $0641, $0690           ;.A.......@...A..
L0001BB1A dc.w $0540, $0690, $0418, $0C90, $0641, $0690, $0540, $0690           ;.@.......A...@..
L0001BB2A dc.w $030C, $0690, $0540, $0690, $0641, $0690, $0540, $0690           ;.....@...A...@..
L0001BB3A dc.w $0418, $0C90, $0641, $0C90, $030C, $0690, $0540, $0690           ;.....A.......@..
L0001BB4A dc.w $0641, $0690, $0540, $0690, $0418, $0690, $0418, $0690           ;.A...@..........
L0001BB5A dc.w $0418, $0690, $0418, $0680, $9007, $8F02, $8E8C, $140C           ;................
L0001BB6A dc.w $200C, $200C, $1406, $1E0C, $1406, $200C, $1E0C, $200C           ; . ....... ... .
L0001BB7A dc.w $0F0C, $1B0C, $1B0C, $0F06, $190C, $0F06, $1B0C, $190C           ;................
L0001BB8A dc.w $1B0C, $120C, $1E0C, $1E0C, $1206, $1E0C, $1206, $1E0C           ;................
L0001BB9A dc.w $200C, $220C, $0D0C, $190C, $190C, $0D06, $190C, $0D06           ; .".............
L0001BBAA dc.w $190C, $1E0C, $200C, $808F, $0390, $0187, $5423, $9090           ;.... .......T#..
L0001BBBA dc.w $0223, $0623, $9690, $0187, $5423, $0623, $8A90, $0223           ;.#.#....T#.#...#
L0001BBCA dc.w $9C80, $900A, $8F04, $8B14, $0103, $3D48, $3F18, $3A60           ;..........=H?.:`
L0001BBDA dc.w $3A48, $3D18, $3860, $8090, $098F, $0214, $0C20, $0C20           ;:H=.8`....... .
L0001BBEA dc.w $0C14, $061E, $0C14, $0620, $0C1E, $0C20, $0C14, $0C20           ;....... ... ...
L0001BBFA dc.w $0C20, $0C14, $061E, $0C14, $0620, $0614, $061E, $0614           ;. ....... ......
L0001BC0A dc.w $0620, $0614, $060F, $0C1B, $0C1B, $0C0F, $0619, $0C0F           ;. ..............
L0001BC1A dc.w $061B, $0C19, $0C1B, $0C0F, $0C1B, $0C1B, $0C0F, $0619           ;................
L0001BC2A dc.w $0C0F, $061B, $060F, $0619, $060F, $061B, $060F, $0680           ;................
L0001BC3A dc.w $0000, $0000, $0000, $0000, $0000, $0000, $0000, $0000           ;................
L0001BC4A dc.w $0000, $0000, $0000, $0000, $0000, $0000, $0000, $0000           ;................
L0001BC5A dc.w $0000, $0000, $0000, $0000, $0000, $0000, $0000, $0000           ;................
L0001BC6A dc.w $0000, $0000, $0000, $0000, $0000, $0000, $0000, $0000           ;................
L0001BC7A dc.w $0000, $0000, $0000, $0000, $0000, $0000, $0000, $0000           ;................
L0001BC8A dc.w $0000, $0000, $0000, $0000, $0000, $0000, $0000, $0000           ;................
L0001BC9A dc.w $0000, $0000, $0000, $0000, $0000, $0000, $0000, $0000           ;................
L0001BCAA dc.w $0000, $0000, $0000, $0000, $0000, $0000, $0000, $0000           ;................
L0001BCBA dc.w $0000, $0000, $0000, $0000, $0000, $0000, $0000, $0000           ;................
L0001BCCA dc.w $0000, $0000, $0000, $0000, $0000, $0000, $0000, $0000           ;................
L0001BCDA dc.w $0000, $0000, $0000, $0000, $0000, $0000, $0000, $0000           ;................
L0001BCEA dc.w $0000, $0000, $0000, $0000, $0000, $0000, $0000, $0000           ;................
L0001BCFA dc.w $0000, $0000, $0000, $0000, $0000, $0000, $0000, $0000           ;................
L0001BD0A dc.w $0000, $0000, $0000, $0000, $0000, $0000, $0000, $0000           ;................
L0001BD1A dc.w $0000, $0000, $0000, $0000, $0000, $0000, $0000, $0000           ;................
L0001BD2A dc.w $0000, $0000, $0000, $0000, $0000, $0000, $0000, $0000           ;................
L0001BD3A dc.w $0000, $0000, $0000, $0000, $0000, $0000, $0000, $0000           ;................
L0001BD4A dc.w $0000, $0000, $0000, $0000, $0000, $0000, $0000, $0000           ;................
L0001BD5A dc.w $0000, $0000, $0000, $0000, $0000, $0000, $0000, $0000           ;................
L0001BD6A dc.w $0000, $0000, $0000, $0000, $0000, $0000, $0000, $0000           ;................
L0001BD7A dc.w $0000, $0000, $0000, $0000, $0000, $0000, $0000, $0000           ;................
L0001BD8A dc.w $0000, $0000, $0000, $0000, $0000, $0000, $0000, $0000           ;................
L0001BD9A dc.w $0000, $0000, $0000, $0000, $0000, $0000, $0000, $0000           ;................
L0001BDAA dc.w $0000, $0000, $0000, $0000, $0000, $0000, $0000, $0000           ;................
L0001BDBA dc.w $0000, $0000, $0000, $0000, $0000, $0000, $0000, $0000           ;................
L0001BDCA dc.w $0000, $0000, $0000, $0000, $0000, $0000, $0000, $0000           ;................
L0001BDDA dc.w $0000, $0000, $0000, $0000, $0000, $0000, $0000, $0000           ;................
L0001BDEA dc.w $0000, $0000, $0000, $0000, $0000, $0000, $0000, $0000           ;................
L0001BDFA dc.w $0000, $0000, $0000, $0000, $0000, $0000, $0000, $0000           ;................
L0001BE0A dc.w $0000, $0000, $0000, $0000, $0000, $0000, $0000, $0000           ;................
L0001BE1A dc.w $0000, $0000, $0000, $0000, $0000, $0000, $0000, $0000           ;................
L0001BE2A dc.w $0000, $0000, $0000, $0000, $0000, $0000, $0000, $0000           ;................
L0001BE3A dc.w $0000, $0000, $0000, $0000, $0000, $0000, $0000, $0000           ;................
L0001BE4A dc.w $0000, $0000, $0000, $0000, $0000, $0000, $0000, $0000           ;................
L0001BE5A dc.w $0000, $0000, $0000, $0000, $0000, $0000, $0000, $0000           ;................
L0001BE6A dc.w $0000, $0000, $0000, $0000, $0000, $0000, $0000, $0000           ;................
L0001BE7A dc.w $0000, $0000, $0000, $0000, $0000, $0000, $0000, $0000           ;................
L0001BE8A dc.w $0000, $0000, $0000, $0000, $0000, $0000, $0000, $0000           ;................
L0001BE9A dc.w $0000, $0000, $0000, $0000, $0000, $0000, $0000, $0000           ;................
L0001BEAA dc.w $0000, $0000, $0000, $0000, $0000, $0000, $0000, $0000           ;................
L0001BEBA dc.w $0000, $0000, $0000, $0000, $0000, $0000, $0000, $0000           ;................
L0001BECA dc.w $0000, $0000, $0000, $0000, $0000, $0000, $0000, $0000           ;................
L0001BEDA dc.w $0000, $0000, $0000, $0000, $0000, $0000, $0000, $0000           ;................
L0001BEEA dc.w $0000, $0000, $0000, $0000, $0000, $0000, $0000, $0000           ;................
L0001BEFA dc.w $0000, $0000, $0000, $0000, $0000, $0000, $0000, $0000           ;................
L0001BF0A dc.w $0000, $0000, $0000, $0000, $0000, $0000, $0000, $0000           ;................
L0001BF1A dc.w $0000, $0000, $0000, $0000, $0000, $0000, $0000, $0000           ;................
L0001BF2A dc.w $0000, $0000, $0000, $0000, $0000, $0000, $0000, $0000           ;................
L0001BF3A dc.w $0000, $0000, $0000, $0000, $0000, $0000, $0000, $0000           ;................
L0001BF4A dc.w $0000, $0000, $0000, $0000, $0000, $0000, $0000, $0000           ;................
L0001BF5A dc.w $0000, $0000, $0000, $0000, $0000, $0000, $0000, $0000           ;................
L0001BF6A dc.w $0000, $0000, $0000, $0000, $0000, $0000, $0000, $0000           ;................
L0001BF7A dc.w $0000, $0000, $0000, $0000, $0000, $0000, $0000, $0000           ;................
L0001BF8A dc.w $0000, $0000, $0000, $0000, $0000, $0000, $0000, $0000           ;................
L0001BF9A dc.w $0000, $0000, $0000, $0000, $0000, $0000, $0000, $0000           ;................
L0001BFAA dc.w $0000, $0000, $0000, $0000, $0000, $0000, $0000, $0000           ;................
L0001BFBA dc.w $0000, $0000, $0000, $0000, $0000, $0000, $0000, $0000           ;................
L0001BFCA dc.w $0000, $0000, $0000, $0000, $0000, $0000, $0000, $0000           ;................
L0001BFDA dc.w $0000, $0000, $0000, $0000, $0000, $0000, $0000, $0000           ;................
L0001BFEA dc.w $0000, $0000, $0000, $0000, $0000, $0000, $0000, $0000           ;................
L0001BFFA dc.w $0000, $0000, $0000, $6000, $0006, $6000, $144A, $42B9           ;......`...`..JB.
L0001C00A dc.w $0007, $C87C, $23F9, $0001, $CA18, $0007, $C878, $4FF9           ;...|#........xO.
L0001C01A dc.w $0001, $D6DE, $13FC, $00F4, $0001, $D6E8, $13FC, $00F4           ;................
L0001C02A dc.w $0001, $D6EC, $7001, $6100, $02C6, $6100, $00A2, $33FC           ;....p.a...a...3.
L0001C03A dc.w $5000, $00DF, $F100, $41F9, $0001, $D79A, $6100, $1358           ;P.....A.....a..X
L0001C04A dc.w $0279, $F89F, $0007, $C874, $6100, $014C, $6100, $09DC           ;.y.....ta..La...
L0001C05A dc.w $6100, $052A, $4679, $0001, $C09C, $0C39, $00F4, $0001           ;a..*Fy.....9....
L0001C06A dc.w $D6E8, $66F6, $7001, $6100, $0286, $23F9, $0001, $CA18           ;..f.p.a...#.....
L0001C07A dc.w $0007, $C878, $4EB9, $0007, $C81C, $4EB9, $0007, $C838           ;...xN.....N....8
L0001C08A dc.w $4EB9, $0000, $4008, $4EF9, $0000, $0824, $4EF9, $0001           ;N...@.N....$N...
L0001C09A dc.w $D542, $0000, $4A79, $0001, $C09C, $6614, $0C39, $002C           ;.B..Jy....f..9.,
L0001C0AA dc.w $0001, $D6E8, $6708, $0479, $0100, $0001, $D6E8, $4E75           ;....g..y......Nu
L0001C0BA dc.w $0C39, $00F4, $0001, $D6E8, $6712, $6508, $13FC, $00F0           ;.9......g.e.....
L0001C0CA dc.w $0001, $D6E8, $0679, $0400, $0001, $D6E8, $4E75, $23FC           ;.....y......Nu#.
L0001C0DA dc.w $F481, $F4C1, $00DF, $F08E, $303C, $7FFF, $33C0, $00DF           ;........0<..3...
L0001C0EA dc.w $F096, $33C0, $00DF, $F09A, $33C0, $00DF, $F09C, $23FC           ;..3.....3.....#.
L0001C0FA dc.w $0001, $C26C, $0000, $0064, $23FC, $0001, $C26E, $0000           ;...l...d#....n..
L0001C10A dc.w $0068, $23FC, $0001, $C2A8, $0000, $006C, $23FC, $0001           ;.h#........l#...
L0001C11A dc.w $C2E4, $0000, $0070, $23FC, $0001, $C2E6, $0000, $0074           ;.....p#........t
L0001C12A dc.w $33FC, $E028, $00DF, $F09A, $33FC, $83C0, $00DF, $F096           ;3..(....3.......
L0001C13A dc.w $23FC, $0001, $D6E2, $00DF, $F080, $33C0, $00DF, $F088           ;#.........3.....
L0001C14A dc.w $13FC, $007F, $00BF, $ED01, $13FC, $007F, $00BF, $ED01           ;................
L0001C15A dc.w $4EB9, $0000, $4000, $203C, $0000, $1F40, $6000, $1176           ;N...@. <...@`..v
L0001C16A dc.w $4279, $0001, $C2F0, $4E75, $0839, $0000, $0001, $C2ED           ;By....Nu.9......
L0001C17A dc.w $6600, $003C, $4A79, $0001, $C2F2, $6600, $FFEA, $0C79           ;f..<Jy....f....y
L0001C18A dc.w $005C, $0001, $C2EC, $6626, $4679, $0001, $C2F2, $0879           ;.\....f&Fy.....y
L0001C19A dc.w $0000, $0007, $C875, $0839, $0000, $0007, $C875, $6706           ;.....u.9.....ug.
L0001C1AA dc.w $4EF9, $0000, $4004, $7001, $4EF9, $0000, $4010, $4279           ;N...@.p.N...@.By
L0001C1BA dc.w $0001, $C2F2, $4E75, $0839, $0000, $0001, $C2ED, $6600           ;....Nu.9......f.
L0001C1CA dc.w $FFA0, $4A79, $0001, $C2F0, $6676, $3039, $0001, $C2EC           ;..Jy....fv09....
L0001C1DA dc.w $0200, $00FE, $33C0, $0001, $C2F0, $41F9, $0001, $C258           ;....3.....A....X
L0001C1EA dc.w $B010, $6700, $0010, $0C10, $FFFF, $6700, $0054, $5488           ;..g.......g..TT.
L0001C1FA dc.w $6000, $FFEE, $1228, $0001, $41F9, $0001, $C24D, $7005           ;`....(..A....Mp.
L0001C20A dc.w $1150, $FFFF, $5288, $51C8, $FFF8, $13C1, $0001, $C251           ;.P..R.Q........Q
L0001C21A dc.w $41F9, $0001, $C24C, $43F9, $0001, $C252, $7005, $B308           ;A....LC....Rp...
L0001C22A dc.w $661E, $51C8, $FFFA, $0879, $0007, $0007, $C875, $13FC           ;f.Q....y.....u..
L0001C23A dc.w $00F4, $0001, $D6E8, $203C, $0000, $1F40, $6100, $1096           ;...... <...@a...
L0001C24A dc.w $4E75, $2020, $2020, $2020, $4958, $4C4C, $4C4C, $BE58           ;Nu      IXLLLL.X
L0001C25A dc.w $AE31, $9251, $904C, $D020, $B030, $DA4A, $B249, $CE46           ;.1.Q.L. .0.J.I.F
L0001C26A dc.w $9456, $4E73, $48E7, $FFFE, $13F9, $00BF, $EC01, $0001           ;.VNsH...........
L0001C27A dc.w $C2ED, $13F9, $00BF, $ED01, $00BF, $ED01, $33FC, $0808           ;............3...
L0001C28A dc.w $00DF, $F09C, $13FC, $0008, $00BF, $ED01, $13FC, $0060           ;...............`
L0001C29A dc.w $00BF, $EE01, $6100, $FF20, $4CDF, $7FFF, $4E73, $48E7           ;....a.. L...NsH.
L0001C2AA dc.w $FFFE, $4EB9, $0000, $4018, $6100, $FDEA, $13F9, $00BF           ;..N...@.a.......
L0001C2BA dc.w $ED01, $00BF, $ED01, $13FC, $0008, $00BF, $EE01, $13FC           ;................
L0001C2CA dc.w $0088, $00BF, $ED01, $33FC, $0020, $00DF, $F09C, $4679           ;......3.. ....Fy
L0001C2DA dc.w $0001, $C2E8, $4CDF, $7FFF, $4E73, $4E73, $4E73, $0000           ;....L...NsNsNs..
L0001C2EA dc.w $0000, $0000, $0000, $0000, $0000, $0000, $0000, $0C39           ;...............9
L0001C2FA dc.w $00A1, $00DF, $F006, $66F6, $323C, $001E, $51C9, $FFFE           ;......f.2<..Q...
L0001C30A dc.w $51C8, $FFEC, $4E75, $0000, $0000, $0000, $0000, $0647           ;Q...Nu.........G
L0001C31A dc.w $0001, $33C7, $00DF, $F180, $4E75, $23CE, $0001, $C314           ;..3.....Nu#.....
L0001C32A dc.w $13DE, $0001, $C311, $13DE, $0001, $C313, $7000, $3039           ;............p.09
L0001C33A dc.w $0001, $C312, $C0FC, $0028, $D079, $0001, $C310, $0680           ;.......(.y......
L0001C34A dc.w $0006, $3190, $C18A, $264A, $4A79, $0001, $C782, $6600           ;..1...&JJy....f.
L0001C35A dc.w $01B4, $101E, $0C00, $FFFF, $6700, $FFAA, $0C00, $000D           ;........g.......
L0001C36A dc.w $6700, $0164, $0C00, $000E, $6700, $0168, $0C00, $0001           ;g..d....g..h....
L0001C37A dc.w $6700, $016C, $0C00, $0006, $6700, $01FC, $0C00, $0002           ;g..l....g.......
L0001C38A dc.w $6700, $0172, $0C00, $0003, $6700, $01AA, $0C00, $0004           ;g..r....g.......
L0001C39A dc.w $6700, $01B2, $0C00, $0005, $6700, $01E2, $0C00, $0040           ;g.......g......@
L0001C3AA dc.w $6700, $004A, $0C00, $0026, $6700, $0032, $0C00, $0023           ;g..J...&g..2...#
L0001C3BA dc.w $6700, $019C, $0C00, $002E, $6700, $002A, $0240, $003F           ;g.......g..*.@.?
L0001C3CA dc.w $6700, $0168, $0C00, $0020, $6700, $002A, $0C00, $0030           ;g..h... g..*...0
L0001C3DA dc.w $6D00, $0028, $0440, $0014, $6000, $0020, $303C, $002C           ;m..(.@..`.. 0<.,
L0001C3EA dc.w $6000, $0018, $303C, $002A, $6000, $0010, $103C, $002B           ;`...0<.*`....<.+
L0001C3FA dc.w $6000, $0008, $528B, $6000, $FF50, $C0FC, $0050, $0680           ;`...R.`..P...P..
L0001C40A dc.w $0003, $F1EA, $C189, $7E04, $7200, $244B, $1491, $1569           ;......~.r.$K...i
L0001C41A dc.w $0002, $0028, $1569, $0004, $0050, $1569, $0006, $0078           ;...(.i...P.i...x
L0001C42A dc.w $1569, $0008, $00A0, $1569, $000A, $00C8, $1569, $000C           ;.i.....i.....i..
L0001C43A dc.w $00F0, $1569, $000E, $0118, $D3FC, $0000, $0010, $D5F9           ;...i............
L0001C44A dc.w $0001, $CA3E, $51CF, $FFC6, $528B, $6000, $FEFC, $4E75           ;...>Q...R.`...Nu
L0001C45A dc.w $0000, $0000, $7600, $7400, $3639, $0001, $C45C, $3439           ;....v.t.69...\49
L0001C46A dc.w $0001, $C45A, $C6FC, $0028, $D443, $0682, $0006, $3190           ;...Z...(.C....1.
L0001C47A dc.w $C58A, $0280, $0000, $003F, $C0FC, $0050, $0680, $0003           ;.......?...P....
L0001C48A dc.w $F1EA, $C189, $7E04, $7200, $1491, $1569, $0002, $0028           ;....~.r....i...(
L0001C49A dc.w $1569, $0004, $0050, $1569, $0006, $0078, $1569, $0008           ;.i...P.i...x.i..
L0001C4AA dc.w $00A0, $1569, $000A, $00C8, $1569, $000C, $00F0, $1569           ;...i.....i.....i
L0001C4BA dc.w $000E, $0118, $D3FC, $0000, $0010, $D5F9, $0001, $CA3E           ;...............>
L0001C4CA dc.w $51CF, $FFC6, $4E75, $0679, $0008, $0001, $C312, $6000           ;Q...Nu.y......`.
L0001C4DA dc.w $FE5C, $D7FC, $0000, $0140, $244B, $6000, $FE6C, $6100           ;.\.....@$K`..la.
L0001C4EA dc.w $054A, $33FC, $0007, $0001, $C310, $4279, $0001, $C312           ;.J3.......By....
L0001C4FA dc.w $6000, $FE3A, $101E, $13C0, $0001, $C782, $101E, $13C0           ;`..:............
L0001C50A dc.w $0001, $C783, $7000, $6100, $FDE6, $6100, $FC5C, $0839           ;....p.a...a..\.9
L0001C51A dc.w $0007, $00BF, $E001, $670C, $0479, $0001, $0001, $C782           ;......g..y......
L0001C52A dc.w $6000, $FE26, $4EF9, $0001, $C05E, $2C79, $0001, $C314           ;`..&N....^,y....
L0001C53A dc.w $6000, $FDE8, $23CE, $0001, $C77E, $2C7C, $0001, $C974           ;`...#....~,|...t
L0001C54A dc.w $6000, $FE06, $2C79, $0001, $C77E, $6000, $FDFC, $33F9           ;`...,y...~`...3.
L0001C55A dc.w $0001, $C310, $0001, $C45A, $33F9, $0001, $C312, $0001           ;.......Z3.......
L0001C56A dc.w $C45C, $103C, $0020, $6100, $FEEC, $0479, $0001, $0001           ;.\.<. a....y....
L0001C57A dc.w $C310, $6000, $FDD4, $6000, $FDD0, $4E75, $4BF9, $0001           ;..`...`...NuK...
L0001C58A dc.w $CA28, $49F9, $0001, $C9FC, $7000, $2C15, $BCB9, $0007           ;.(I.....p.,.....
L0001C59A dc.w $C87C, $6E00, $004E, $2B55, $0004, $598D, $99FC, $0000           ;.|n..N+U..Y.....
L0001C5AA dc.w $0017, $196C, $000A, $0021, $196C, $000B, $0022, $196C           ;...l...!.l...".l
L0001C5BA dc.w $000C, $0023, $196C, $000F, $0026, $196C, $0010, $0027           ;...#.l...&.l...'
L0001C5CA dc.w $196C, $0011, $0028, $196C, $0012, $0029, $196C, $0013           ;.l...(.l...).l..
L0001C5DA dc.w $002A, $196C, $0014, $002B, $5240, $0C40, $0005, $6600           ;.*.l...+R@.@..f.
L0001C5EA dc.w $FFAA, $4A40, $6700, $0170, $2B55, $0004, $2AB9, $0007           ;..J@g..p+U..*...
L0001C5FA dc.w $C87C, $197C, $0020, $000A, $197C, $0020, $000B, $197C           ;.|.|. ...|. ...|
L0001C60A dc.w $0020, $000C, $48E7, $8000, $102D, $0003, $1200, $0200           ;. ..H....-......
L0001C61A dc.w $000F, $0640, $0030, $E809, $0641, $0030, $1940, $0014           ;...@.0...A.0.@..
L0001C62A dc.w $1941, $0013, $102D, $0002, $1200, $0200, $000F, $0640           ;.A...-.........@
L0001C63A dc.w $0030, $E809, $0641, $0030, $1940, $0012, $1941, $0011           ;.0...A.0.@...A..
L0001C64A dc.w $102D, $0001, $1200, $0200, $000F, $0640, $0030, $E809           ;.-.........@.0..
L0001C65A dc.w $0641, $0030, $1940, $0010, $1941, $000F, $D9FC, $0000           ;.A.0.@...A......
L0001C66A dc.w $000A, $41F9, $0001, $C76A, $4CDF, $0001, $E340, $33F0           ;..A....jL....@3.
L0001C67A dc.w $0000, $0001, $C45C, $33FC, $0011, $0001, $C45A, $33FC           ;.....\3......Z3.
L0001C68A dc.w $0003, $0001, $C776, $13FC, $0004, $0001, $C9FC, $4DF9           ;.....v........M.
L0001C69A dc.w $0001, $C96E, $6100, $FC84, $7C01, $6100, $006A, $7004           ;...na...|.a..jp.
L0001C6AA dc.w $6100, $FC4C, $42B9, $0001, $C778, $4279, $0001, $C77C           ;a..LB....xBy...|
L0001C6BA dc.w $3039, $00DF, $F00C, $0800, $0001, $56F9, $0001, $C77A           ;09........V....z
L0001C6CA dc.w $0800, $0008, $56F9, $0001, $C778, $0839, $0007, $00BF           ;....V....x.9....
L0001C6DA dc.w $E001, $6700, $003C, $3039, $0001, $C778, $8079, $0001           ;..g..<09...x.y..
L0001C6EA dc.w $C77A, $67BA, $4A79, $0001, $C778, $6600, $0010, $0C46           ;.zg.Jy...xf....F
L0001C6FA dc.w $001B, $6700, $FFAA, $5246, $6000, $000C, $0C46, $0001           ;..g...RF`....F..
L0001C70A dc.w $6700, $FF9C, $5346, $1006, $6100, $FD4A, $6000, $FF90           ;g...SF..a..J`...
L0001C71A dc.w $0839, $0007, $00BF, $E001, $6700, $FFF6, $0679, $0001           ;.9......g....y..
L0001C72A dc.w $0001, $C45A, $1006, $0C00, $001C, $6600, $0006, $303C           ;...Z......f...0<
L0001C73A dc.w $FFE0, $0600, $0040, $18C0, $0479, $0001, $0001, $C776           ;.....@...y.....v
L0001C74A dc.w $6700, $000C, $1006, $6100, $FD0C, $6000, $FF52, $33FC           ;g.....a...`..R3.
L0001C75A dc.w $0060, $0001, $C782, $4DF9, $0001, $C784, $6000, $FBBC           ;.`....M.....`...
L0001C76A dc.w $0058, $0060, $0050, $0040, $0030, $0020, $0000, $0000           ;.X.`.P.@.0. ....
L0001C77A dc.w $0000, $0000, $0000, $0000, $0000, $0101, $010D, $0D0D           ;................
L0001C78A dc.w $0D0D, $0D20, $2020, $2020, $204F, $4345, $414E, $2053           ;...      OCEAN S
L0001C79A dc.w $4F46, $5457, $4152, $450D, $0D20, $2020, $2020, $2020           ;OFTWARE..
L0001C7AA dc.w $2020, $5052, $4553, $454E, $5453, $2020, $200D, $0200           ;  PRESENTS   ...
L0001C7BA dc.w $8001, $060D, $0D0D, $0D0D, $0D20, $2020, $2020, $2020           ;.........
L0001C7CA dc.w $2020, $2042, $4154, $4D41, $4E0D, $0D20, $2020, $2020           ;   BATMAN..
L0001C7DA dc.w $2020, $2054, $4845, $204D, $4F56, $4945, $2E02, $0080           ;   THE MOVIE....
L0001C7EA dc.w $010D, $0D20, $2020, $544D, $2026, $2040, $2044, $4320           ;...   TM & @ DC
L0001C7FA dc.w $434F, $4D49, $4353, $2049, $4E43, $2E0D, $2020, $2020           ;COMICS INC..
L0001C80A dc.w $2020, $2020, $2020, $2031, $3938, $3920, $0D0D, $0D20           ;       1989 ...
L0001C81A dc.w $2020, $4020, $4F43, $4541, $4E20, $534F, $4654, $5741           ;  @ OCEAN SOFTWA
L0001C82A dc.w $5245, $2031, $3938, $390D, $0D0D, $2020, $2020, $2045           ;RE 1989...     E
L0001C83A dc.w $5343, $2E2E, $4142, $4F52, $5420, $4741, $4D45, $0D0D           ;SC..ABORT GAME..
L0001C84A dc.w $2020, $2020, $2020, $4631, $2E2E, $5041, $5553, $4520           ;      F1..PAUSE
L0001C85A dc.w $4741, $4D45, $0D0D, $2020, $2020, $2020, $4632, $2E2E           ;GAME..      F2..
L0001C86A dc.w $544F, $4747, $4C45, $204D, $5553, $4943, $0D02, $0100           ;TOGGLE MUSIC....
L0001C87A dc.w $010D, $2020, $2043, $4F44, $494E, $4720, $4259, $0D20           ;..   CODING BY.
L0001C88A dc.w $2020, $2020, $2020, $2020, $2020, $204D, $494B, $4520           ;           MIKE
L0001C89A dc.w $4C41, $4D42, $0D20, $2020, $2020, $2020, $2020, $2020           ;LAMB.
L0001C8AA dc.w $204A, $4F42, $4245, $4545, $450D, $2020, $2020, $2020           ; JOBBEEEE.
L0001C8BA dc.w $2020, $2020, $2020, $5348, $4F52, $5459, $0D0D, $2020           ;      SHORTY..
L0001C8CA dc.w $2047, $5241, $5048, $4943, $5320, $4259, $0D20, $2020           ; GRAPHICS BY.
L0001C8DA dc.w $2020, $2020, $2020, $2020, $2044, $4157, $4E20, $4452           ;         DAWN DR
L0001C8EA dc.w $414B, $450D, $2020, $2020, $2020, $2020, $2020, $2020           ;AKE.
L0001C8FA dc.w $4249, $4C4C, $2048, $4152, $4249, $534F, $4E0D, $2020           ;BILL HARBISON.
L0001C90A dc.w $2020, $2020, $2020, $2020, $2020, $4A4F, $484E, $2050           ;          JOHN P
L0001C91A dc.w $414C, $4D45, $520D, $0D20, $2020, $4D55, $5349, $4320           ;ALMER..   MUSIC
L0001C92A dc.w $414E, $4420, $4658, $2042, $590D, $2020, $2020, $2020           ;AND FX BY.
L0001C93A dc.w $2020, $2020, $2020, $4A4F, $4E20, $4455, $4E4E, $0D20           ;      JON DUNN.
L0001C94A dc.w $2020, $2020, $2020, $2020, $2020, $204D, $4154, $5448           ;           MATTH
L0001C95A dc.w $4557, $2043, $414E, $4E4F, $4E02, $0100, $0103, $0200           ;EW CANNON.......
L0001C96A dc.w $F001, $00FF, $0C30, $010D, $03FF, $2020, $2020, $2020           ;.....0....
L0001C97A dc.w $2020, $2048, $4920, $5343, $4F52, $4553, $0D0D, $0D20           ;   HI SCORES...
L0001C98A dc.w $2020, $2020, $3153, $5420, $2041, $4A53, $2020, $3132           ;    1ST  AJS  12
L0001C99A dc.w $3530, $3030, $0D0D, $2020, $2020, $2032, $4E44, $2020           ;5000..     2ND
L0001C9AA dc.w $4D49, $4B20, $2031, $3030, $3030, $300D, $0D20, $2020           ;MIK  100000..
L0001C9BA dc.w $2020, $3352, $4420, $204A, $4F42, $2020, $3037, $3530           ;  3RD  JOB  0750
L0001C9CA dc.w $3030, $0D0D, $2020, $2020, $2034, $5448, $2020, $4249           ;00..     4TH  BI
L0001C9DA dc.w $4C20, $2030, $3530, $3030, $300D, $0D20, $2020, $2020           ;L  050000..
L0001C9EA dc.w $3554, $4820, $204A, $4F4E, $2020, $3032, $3530, $3030           ;5TH  JON  025000
L0001C9FA dc.w $0D0D, $2020, $2020, $2020, $2020, $2020, $2020, $2020           ;..
L0001CA0A dc.w $2020, $2020, $2020, $200D, $0D04, $0000, $0000, $0012           ;       .........
L0001CA1A dc.w $5000, $0010, $0000, $0007, $5000, $0005, $0000, $0002           ;P.......P.......
L0001CA2A dc.w $5000, $0000, $0000, $0000, $0000, $41F9, $0004, $0000           ;P.........A.....
L0001CA3A dc.w $6000, $099E, $0000, $0000, $0000, $0000, $41F9, $0001           ;`...........A...
L0001CA4A dc.w $CD0E, $45F9, $0001, $CD2E, $47F9, $0001, $CD16, $49F9           ;..E.....G.....I.


0001ca34 41f9 0004 0000           lea.l $00040000,a0
0001ca3a 6000 099e                bra.w #$099e == $0001d3da (T)
0001ca3e 0000 0000                or.b #$00,d0
0001ca42 0000 0000                or.b #$00,d0
0001ca46 41f9 0001 cd0e           lea.l $0001cd0e,a0
0001ca4c 45f9 0001 cd2e           lea.l $0001cd2e,a2
0001ca52 47f9 0001 cd16           lea.l $0001cd16,a3
0001ca58 49f9 0001 cd34           lea.l $0001cd34,a4
0001ca5e 4bf9 0001 cd3a           lea.l $0001cd3a,a5
0001ca64 4df9 0001 cd40           lea.l $0001cd40,a6
0001ca6a 7e00                     moveq #$00,d7
0001ca6c 6100 0126                bsr.w #$0126 == $0001cb94
0001ca70 323c 0fca                move.w #$0fca,d1
0001ca74 8279 0001 cd8c           or.w $0001cd8c [0000],d1
0001ca7a 33c1 00df f040           move.w d1,$00dff040
0001ca80 33f9 0001 cd8c 00df f042 move.w $0001cd8c [0000],$00dff042
0001ca8a 2039 0001 cd86           move.l $0001cd86 [00000000],d0
0001ca90 6700 0100                beq.w #$0100 == $0001cb92 (F)
0001ca94 23f9 0001 cd6e 00df f04c move.l $0001cd6e [00000000],$00dff04c
0001ca9e 23f9 0001 cd82 00df f050 move.l $0001cd82 [00000000],$00dff050
0001caa8 23c0 00df f048           move.l d0,$00dff048
0001caae 23c0 00df f054           move.l d0,$00dff054
0001cab4 4279 00df f064           clr.w $00dff064
0001caba 4279 00df f062           clr.w $00dff062
0001cac0 33d4 00df f060           move.w (a4) [0000],$00dff060
0001cac6 33d4 00df f066           move.w (a4) [0000],$00dff066
0001cacc 33d2 00df f058           move.w (a2) [0000],$00dff058
0001cad2 d0b9 0001 ca3e           add.l $0001ca3e [00000000],d0
0001cad8 6100 0968                bsr.w #$0968 == $0001d442
0001cadc 23f9 0001 cd72 00df f04c move.l $0001cd72 [00000000],$00dff04c
0001cae6 23f9 0001 cd82 00df f050 move.l $0001cd82 [00000000],$00dff050
0001caf0 23c0 00df f048           move.l d0,$00dff048
0001caf6 23c0 00df f054           move.l d0,$00dff054
0001cafc 33d2 00df f058           move.w (a2) [0000],$00dff058
0001cb02 d0b9 0001 ca3e           add.l $0001ca3e [00000000],d0
0001cb08 6100 0938                bsr.w #$0938 == $0001d442
0001cb0c 23f9 0001 cd76 00df f04c move.l $0001cd76 [00000000],$00dff04c
0001cb16 23f9 0001 cd82 00df f050 move.l $0001cd82 [00000000],$00dff050
0001cb20 23c0 00df f048           move.l d0,$00dff048
0001cb26 23c0 00df f054           move.l d0,$00dff054
0001cb2c 33d2 00df f058           move.w (a2) [0000],$00dff058
0001cb32 d0b9 0001 ca3e           add.l $0001ca3e [00000000],d0
0001cb38 6100 0908                bsr.w #$0908 == $0001d442
0001cb3c 23f9 0001 cd7a 00df f04c move.l $0001cd7a [00000000],$00dff04c
0001cb46 23f9 0001 cd82 00df f050 move.l $0001cd82 [00000000],$00dff050
0001cb50 23c0 00df f048           move.l d0,$00dff048
0001cb56 23c0 00df f054           move.l d0,$00dff054
0001cb5c 33d2 00df f058           move.w (a2) [0000],$00dff058
0001cb62 d0b9 0001 ca3e           add.l $0001ca3e [00000000],d0
0001cb68 6100 08d8                bsr.w #$08d8 == $0001d442
0001cb6c 23f9 0001 cd7e 00df f04c move.l $0001cd7e [00000000],$00dff04c
0001cb76 23f9 0001 cd82 00df f050 move.l $0001cd82 [00000000],$00dff050
0001cb80 23c0 00df f048           move.l d0,$00dff048
0001cb86 23c0 00df f054           move.l d0,$00dff054
0001cb8c 33d2 00df f058           move.w (a2) [0000],$00dff058
0001cb92 4e75                     rts  == $000000fe

0001cb94 7000                     moveq #$00,d0
0001cb96 38bc 0028                move.w #$0028,(a4) [0000]
0001cb9a 48e7 0080                movem.l a0,-(a7)
0001cb9e 3016                     move.w (a6) [00c0],d0
0001cba0 c0fc 001c                mulu.w #$001c,d0
0001cba4 41f9 0001 cd44           lea.l $0001cd44,a0
0001cbaa 23f0 0800 0001 cd66      move.l (a0,d0.L,$00) == $00c0473d [7e000900],$0001cd66 [00000000]
0001cbb2 23f0 0804 0001 cd6e      move.l (a0,d0.L,$04) == $00c04741 [c0485e00],$0001cd6e [00000000]
0001cbba 23f0 0808 0001 cd72      move.l (a0,d0.L,$08) == $00c04745 [c0474800],$0001cd72 [00000000]
0001cbc2 23f0 080c 0001 cd76      move.l (a0,d0.L,$0c) == $00c04749 [00000000],$0001cd76 [00000000]
0001cbca 23f0 0810 0001 cd7a      move.l (a0,d0.L,$10) == $00c0474d [c0474405],$0001cd7a [00000000]
0001cbd2 23f0 0814 0001 cd7e      move.l (a0,d0.L,$14) == $00c04751 [00000000],$0001cd7e [00000000]
0001cbda 23f0 0818 0001 cd82      move.l (a0,d0.L,$18) == $00c04755 [010050ff],$0001cd82 [00000000]
0001cbe2 4cdf 0100                movem.l (a7)+,a0
0001cbe6 3010                     move.w (a0) [0000],d0
0001cbe8 3400                     move.w d0,d2
0001cbea 0242 000f                and.w #$000f,d2
0001cbee e648                     lsr.w #$03,d0
0001cbf0 3228 0004                move.w (a0,$0004) == $00c04734 [0000],d1
0001cbf4 0641 0100                add.w #$0100,d1
0001cbf8 4880                     ext.w d0
0001cbfa 0640 0100                add.w #$0100,d0
0001cbfe 3839 0001 cd68           move.w $0001cd68 [0000],d4
0001cc04 3601                     move.w d1,d3
0001cc06 0c43 01c7                cmp.w #$01c7,d3
0001cc0a 6e00 0016                bgt.w #$0016 == $0001cc22 (T)
0001cc0e d644                     add.w d4,d3
0001cc10 0c43 01c7                cmp.w #$01c7,d3
0001cc14 6d00 0014                blt.w #$0014 == $0001cc2a (F)
0001cc18 0443 01c7                sub.w #$01c7,d3
0001cc1c 9843                     sub.w d3,d4
0001cc1e 6702                     beq.b #$02 == $0001cc22 (F)
0001cc20 6a08                     bpl.b #$08 == $0001cc2a (T)
0001cc22 42b9 0001 cd86           clr.l $0001cd86 [00000000]
0001cc28 4e75                     rts  == $000000fe

0001cc2a 0c41 0100                cmp.w #$0100,d1
0001cc2e 6e00 004a                bgt.w #$004a == $0001cc7a (T)
0001cc32 3601                     move.w d1,d3
0001cc34 d644                     add.w d4,d3
0001cc36 0443 0100                sub.w #$0100,d3
0001cc3a 6b00 ffe6                bmi.w #$ffe6 == $0001cc22 (F)
0001cc3e 3803                     move.w d3,d4
0001cc40 6700 ffe0                beq.w #$ffe0 == $0001cc22 (F)
0001cc44 9679 0001 cd68           sub.w $0001cd68 [0000],d3
0001cc4a 4443                     neg.w d3
0001cc4c c6f9 0001 cd66           mulu.w $0001cd66 [0000],d3
0001cc52 d7b9 0001 cd6e           add.l d3,$0001cd6e [00000000]
0001cc58 d7b9 0001 cd72           add.l d3,$0001cd72 [00000000]
0001cc5e d7b9 0001 cd76           add.l d3,$0001cd76 [00000000]
0001cc64 d7b9 0001 cd7a           add.l d3,$0001cd7a [00000000]
0001cc6a d7b9 0001 cd7e           add.l d3,$0001cd7e [00000000]
0001cc70 d7b9 0001 cd82           add.l d3,$0001cd82 [00000000]
0001cc76 323c 0100                move.w #$0100,d1
0001cc7a 4255                     clr.w (a5) [00c0]
0001cc7c 0c40 0128                cmp.w #$0128,d0
0001cc80 6e00 ffa0                bgt.w #$ffa0 == $0001cc22 (T)
0001cc84 0c40 0100                cmp.w #$0100,d0
0001cc88 6e00 0012                bgt.w #$0012 == $0001cc9c (T)
0001cc8c 3600                     move.w d0,d3
0001cc8e 0443 0100                sub.w #$0100,d3
0001cc92 6b00 ff8e                bmi.w #$ff8e == $0001cc22 (F)
0001cc96 4e71                     nop
0001cc98 303c 0100                move.w #$0100,d0
0001cc9c 3600                     move.w d0,d3
0001cc9e d679 0001 cd66           add.w $0001cd66 [0000],d3
0001cca4 0c43 0128                cmp.w #$0128,d3
0001cca8 6d00 0006                blt.w #$0006 == $0001ccb0 (F)
0001ccac 6000 ff74                bra.w #$ff74 == $0001cc22 (T)
0001ccb0 3c39 0001 cd66           move.w $0001cd66 [0000],d6
0001ccb6 9d54                     sub.w d6,(a4) [0000]
0001ccb8 0440 0100                sub.w #$0100,d0
0001ccbc 0441 0100                sub.w #$0100,d1
0001ccc0 c2fc 0028                mulu.w #$0028,d1
0001ccc4 d081                     add.l d1,d0
0001ccc6 2239 0001 ca42           move.l $0001ca42 [00000000],d1
0001cccc d280                     add.l d0,d1
0001ccce 23c1 0001 cd86           move.l d1,$0001cd86 [00000000]
0001ccd4 e142                     asl.w #$08,d2
0001ccd6 e942                     asl.w #$04,d2
0001ccd8 33c2 0001 cd8c           move.w d2,$0001cd8c [0000]
0001ccde 3a39 0001 cd66           move.w $0001cd66 [0000],d5
0001cce4 cac4                     mulu.w d4,d5
0001cce6 23c5 0001 cd6a           move.l d5,$0001cd6a [00000000]
0001ccec 3a39 0001 cd66           move.w $0001cd66 [0000],d5
0001ccf2 e24d                     lsr.w #$01,d5
0001ccf4 ed44                     asl.w #$06,d4
0001ccf6 8a44                     or.w d4,d5
0001ccf8 3485                     move.w d5,(a2) [0000]
0001ccfa 4e75                     rts  == $000000fe

0001ccfc 41f9 0001 cd2e           lea.l $0001cd2e,a0
0001cd02 3e3c 0002                move.w #$0002,d7
0001cd06 4258                     clr.w (a0)+ [0000]
0001cd08 51cf fffc                dbf .w d7,#$fffc == $0001cd06 (F)
0001cd0c 4e75                     rts  == $000000fe


L0001CD0E dc.w $0000, $0018, $0000, $0012, $0000, $0000, $0000, $0000           ;................
L0001CD1E dc.w $0000, $0000, $0000, $0000, $0000, $0000, $0000, $0000           ;................
L0001CD2E dc.w $0000, $0000, $0000, $0000, $0000, $0000, $0000, $0000           ;................
L0001CD3E dc.w $0000, $0000, $0000, $000C, $001C, $0005, $0000, $0005           ;................
L0001CD4E dc.w $0150, $0005, $02A0, $0005, $03F0, $0005, $0540, $0001           ;.P...........@..
L0001CD5E dc.w $CD8E, $0000, $0000, $0000, $0000, $0000, $0000, $0000           ;................
L0001CD6E dc.w $0000, $0000, $0000, $0000, $0000, $0000, $0000, $0000           ;................
L0001CD7E dc.w $0000, $0000, $0000, $0000, $0000, $0000, $0000, $0000           ;................
L0001CD8E dc.w $FFFF, $FFFF, $FFFF, $FFFF, $FFFF, $FFFF, $FFFF, $FFFF           ;................
L0001CD9E dc.w $FFFF, $FFFF, $FFFF, $FFFF, $FFFF, $FFFF, $FFFF, $FFFF           ;................
L0001CDAE dc.w $FFFF, $FFFF, $FFFF, $FFFF, $FFFF, $FFFF, $FFFF, $FFFF           ;................
L0001CDBE dc.w $FFFF, $FFFF, $FFFF, $FFFF, $FFFF, $FFFF, $FFFF, $FFFF           ;................
L0001CDCE dc.w $FFFF, $FFFF, $FFFF, $FFFF, $FFFF, $FFFF, $FFFF, $FFFF           ;................
L0001CDDE dc.w $FFFF, $FFFF, $FFFF, $FFFF, $FFFF, $FFFF, $FFFF, $FFFF           ;................
L0001CDEE dc.w $FFFF, $FFFF, $FFFF, $FFFF, $FFFF, $FFFF, $FFFF, $FFFF           ;................
L0001CDFE dc.w $FFFF, $FFFF, $FFFF, $FFFF, $FFFF, $FFFF, $FFFF, $FFFF           ;................
L0001CE0E dc.w $FFFF, $FFFF, $FFFF, $FFFF, $FFFF, $FFFF, $FFFF, $FFFF           ;................
L0001CE1E dc.w $FFFF, $FFFF, $FFFF, $FFFF, $FFFF, $FFFF, $FFFF, $FFFF           ;................
L0001CE2E dc.w $FFFF, $FFFF, $FFFF, $FFFF, $FFFF, $FFFF, $FFFF, $FFFF           ;................
L0001CE3E dc.w $FFFF, $FFFF, $FFFF, $FFFF, $FFFF, $FFFF, $FFFF, $FFFF           ;................
L0001CE4E dc.w $FFFF, $FFFF, $FFFF, $FFFF, $FFFF, $FFFF, $FFFF, $FFFF           ;................
L0001CE5E dc.w $FFFF, $FFFF, $FFFF, $FFFF, $FFFF, $FFFF, $FFFF, $FFFF           ;................
L0001CE6E dc.w $FFFF, $FFFF, $FFFF, $FFFF, $FFFF, $FFFF, $FFFF, $FFFF           ;................
L0001CE7E dc.w $FFFF, $FFFF, $FFFF, $FFFF, $FFFF, $FFFF, $FFFF, $FFFF           ;................
L0001CE8E dc.w $FFFF, $FFFF, $FFFF, $FFFF, $FFFF, $FFFF, $FFFF, $FFFF           ;................
L0001CE9E dc.w $FFFF, $FFFF, $FFFF, $FFFF, $FFFF, $FFFF, $FFFF, $FFFF           ;................
L0001CEAE dc.w $FFFF, $FFFF, $FFFF, $FFFF, $FFFF, $FFFF, $FFFF, $FFFF           ;................
L0001CEBE dc.w $FFFF, $FFFF, $FFFF, $FFFF, $FFFF, $FFFF, $FFFF, $FFFF           ;................
L0001CECE dc.w $FFFF, $FFFF, $FFFF, $FFFF, $FFFF, $FFFF, $FFFF, $FFFF           ;................
L0001CEDE dc.w $FFFF, $FFFF, $FFFF, $FFFF, $FFFF, $FFFF, $FFFF, $FFFF           ;................
L0001CEEE dc.w $FFFF, $FFFF, $FFFF, $FFFF, $FFFF, $FFFF, $FFFF, $FFFF           ;................
L0001CEFE dc.w $FFFF, $FFFF, $FFFF, $FFFF, $FFFF, $FFFF, $FFFF, $FFFF           ;................
L0001CF0E dc.w $FFFF, $FFFF, $FFFF, $FFFF, $FFFF, $FFFF, $FFFF, $FFFF           ;................
L0001CF1E dc.w $FFFF, $FFFF, $FFFF, $FFFF, $FFFF, $FFFF, $FFFF, $FFFF           ;................
L0001CF2E dc.w $FFFF, $FFFF, $FFFF, $FFFF, $FFFF, $FFFF, $FFFF, $FFFF           ;................
L0001CF3E dc.w $FFFF, $FFFF, $FFFF, $FFFF, $FFFF, $FFFF, $FFFF, $FFFF           ;................
L0001CF4E dc.w $FFFF, $FFFF, $FFFF, $FFFF, $FFFF, $FFFF, $FFFF, $FFFF           ;................
L0001CF5E dc.w $FFFF, $FFFF, $FFFF, $FFFF, $FFFF, $FFFF, $FFFF, $FFFF           ;................
L0001CF6E dc.w $FFFF, $FFFF, $FFFF, $FFFF, $FFFF, $FFFF, $FFFF, $FFFF           ;................
L0001CF7E dc.w $FFFF, $FFFF, $FFFF, $FFFF, $FFFF, $FFFF, $FFFF, $FFFF           ;................
L0001CF8E dc.w $FFFF, $FFFF, $FFFF, $FFFF, $FFFF, $FFFF, $FFFF, $FFFF           ;................
L0001CF9E dc.w $FFFF, $FFFF, $FFFF, $FFFF, $FFFF, $FFFF, $FFFF, $FFFF           ;................
L0001CFAE dc.w $FFFF, $FFFF, $FFFF, $FFFF, $FFFF, $FFFF, $FFFF, $FFFF           ;................
L0001CFBE dc.w $FFFF, $FFFF, $FFFF, $FFFF, $FFFF, $FFFF, $FFFF, $FFFF           ;................
L0001CFCE dc.w $FFFF, $FFFF, $FFFF, $FFFF, $FFFF, $FFFF, $FFFF, $FFFF           ;................
L0001CFDE dc.w $FFFF, $FFFF, $FFFF, $FFFF, $FFFF, $FFFF, $FFFF, $FFFF           ;................
L0001CFEE dc.w $FFFF, $FFFF, $FFFF, $FFFF, $FFFF, $FFFF, $FFFF, $FFFF           ;................
L0001CFFE dc.w $FFFF, $FFFF, $FFFF, $FFFF, $FFFF, $FFFF, $FFFF, $FFFF           ;................
L0001D00E dc.w $FFFF, $FFFF, $FFFF, $FFFF, $FFFF, $FFFF, $FFFF, $FFFF           ;................
L0001D01E dc.w $FFFF, $FFFF, $FFFF, $FFFF, $FFFF, $FFFF, $FFFF, $FFFF           ;................
L0001D02E dc.w $FFFF, $FFFF, $FFFF, $FFFF, $0000, $0000, $0000, $0000           ;................
L0001D03E dc.w $0000, $0000, $0000, $0000, $0000, $0000, $0000, $0000           ;................
L0001D04E dc.w $0000, $0000, $0000, $0000, $0000, $0000, $0000, $0000           ;................
L0001D05E dc.w $0000, $0000, $0000, $0000, $0000, $0000, $0000, $0000           ;................
L0001D06E dc.w $0000, $0000, $0000, $0000, $0000, $0000, $0000, $0000           ;................
L0001D07E dc.w $0000, $0000, $0000, $0000, $0000, $0000, $0000, $0000           ;................
L0001D08E dc.w $0000, $0000, $0000, $0000, $0000, $0000, $0000, $0000           ;................
L0001D09E dc.w $0000, $0000, $0000, $0000, $0000, $0000, $0000, $0000           ;................
L0001D0AE dc.w $0000, $0000, $0000, $0000, $0000, $0000, $0000, $0000           ;................
L0001D0BE dc.w $0000, $0000, $0000, $0000, $0000, $0000, $0000, $0000           ;................
L0001D0CE dc.w $0000, $0000, $0000, $0000, $0000, $0000, $0000, $0000           ;................
L0001D0DE dc.w $0000, $0000, $0000, $0000, $0000, $0000, $0000, $0000           ;................
L0001D0EE dc.w $0000, $0000, $0000, $0000, $0000, $0000, $0000, $0000           ;................
L0001D0FE dc.w $0000, $0000, $0000, $0000, $0000, $0000, $0000, $0000           ;................
L0001D10E dc.w $0000, $0000, $0000, $0000, $0000, $0000, $0000, $0000           ;................
L0001D11E dc.w $0000, $0000, $0000, $0000, $0000, $0000, $0000, $0000           ;................
L0001D12E dc.w $0000, $0000, $0000, $0000, $0000, $0000, $0000, $0000           ;................
L0001D13E dc.w $0000, $0000, $0000, $0000, $0000, $0000, $0000, $0000           ;................
L0001D14E dc.w $0000, $0000, $0000, $0000, $0000, $0000, $0000, $0000           ;................
L0001D15E dc.w $0000, $0000, $0000, $0000, $0000, $0000, $0000, $0000           ;................
L0001D16E dc.w $0000, $0000, $0000, $0000, $0000, $0000, $0000, $0000           ;................
L0001D17E dc.w $0000, $0000, $0000, $0000, $0000, $0000, $0000, $0000           ;................
L0001D18E dc.w $0000, $0000, $0000, $0000, $0000, $0000, $0000, $0000           ;................
L0001D19E dc.w $0000, $0000, $0000, $0000, $0000, $0000, $0000, $0000           ;................
L0001D1AE dc.w $0000, $0000, $0000, $0000, $0000, $0000, $0000, $0000           ;................
L0001D1BE dc.w $0000, $0000, $0000, $0000, $0000, $0000, $0000, $0000           ;................
L0001D1CE dc.w $0000, $0000, $0000, $0000, $0000, $0000, $0000, $0000           ;................
L0001D1DE dc.w $0000, $0000, $0000, $0000, $0000, $0000, $0000, $0000           ;................
L0001D1EE dc.w $0000, $0000, $0000, $0000, $0000, $0000, $0000, $0000           ;................
L0001D1FE dc.w $0000, $0000, $0000, $0000, $0000, $0000, $0000, $0000           ;................
L0001D20E dc.w $0000, $0000, $0000, $0000, $0000, $0000, $0000, $0000           ;................
L0001D21E dc.w $0000, $0000, $0000, $0000, $0000, $0000, $0000, $0000           ;................
L0001D22E dc.w $0000, $0000, $0000, $0000, $0000, $0000, $0000, $0000           ;................
L0001D23E dc.w $0000, $0000, $0000, $0000, $0000, $0000, $0000, $0000           ;................
L0001D24E dc.w $0000, $0000, $0000, $0000, $0000, $0000, $0000, $0000           ;................
L0001D25E dc.w $0000, $0000, $0000, $0000, $0000, $0000, $0000, $0000           ;................
L0001D26E dc.w $0000, $0000, $0000, $0000, $0000, $0000, $0000, $0000           ;................
L0001D27E dc.w $0000, $0000, $0000, $0000, $0000, $0000, $0000, $0000           ;................
L0001D28E dc.w $0000, $0000, $0000, $0000, $0000, $0000, $0000, $0000           ;................
L0001D29E dc.w $0000, $0000, $0000, $0000, $0000, $0000, $0000, $0000           ;................
L0001D2AE dc.w $0000, $0000, $0000, $0000, $0000, $0000, $0000, $0000           ;................
L0001D2BE dc.w $0000, $0000, $0000, $0000, $0000, $0000, $0000, $0000           ;................
L0001D2CE dc.w $0000, $0000, $0000, $0000, $0000, $0000, $0000, $0000           ;................


0001d2de 23c0 0001 ca3e           move.l d0,$0001ca3e [00000000]
0001d2e4 13fc 00f4 00df f08e      move.b #$f4,$00dff08e
0001d2ec 7001                     moveq #$01,d0
0001d2ee 6100 f008                bsr.w #$f008 == $0001c2f8
0001d2f2 33fc 5000 00df f100      move.w #$5000,$00dff100
0001d2fa 33fc 0040 00df f104      move.w #$0040,$00dff104
0001d302 33fc 0000 00df f102      move.w #$0000,$00dff102
0001d30a 23fc 0006 3190 0001 ca42 move.l #$00063190,$0001ca42 [00000000]
0001d314 33fc 007e 0001 cd0e      move.w #$007e,$0001cd0e [0000]
0001d31c 33fc 003c 0001 cd12      move.w #$003c,$0001cd12 [0000]
0001d324 23fc 0038 00d0 00df f092 move.l #$003800d0,$00dff092
0001d32e 4279 00df f108           clr.w $00dff108
0001d334 4279 00df f10a           clr.w $00dff10a
0001d33a 23fc ffff ffff 00df f044 move.l #$ffffffff,$00dff044
0001d344 203c 0006 3190           move.l #$00063190,d0
0001d34a 0839 0007 0007 c875      btst.b #$0007,$0007c875 [00]
0001d352 671e                     beq.b #$1e == $0001d372 (F)
0001d354 33fc ffb0 00df f108      move.w #$ffb0,$00dff108
0001d35c 33fc ffb0 00df f10a      move.w #$ffb0,$00dff10a
0001d364 2239 0001 ca3e           move.l $0001ca3e [00000000],d1
0001d36a 0481 0000 0028           sub.l #$00000028,d1
0001d370 d081                     add.l d1,d0
0001d372 7e04                     moveq #$04,d7
0001d374 41f9 0001 d6ee           lea.l $0001d6ee,a0
0001d37a 43f9 0001 d702           lea.l $0001d702,a1
0001d380 3340 0002                move.w d0,(a1,$0002) == $00c014e4 [152a]
0001d384 4840                     swap.w d0
0001d386 3140 0002                move.w d0,(a0,$0002) == $00c04732 [0000]
0001d38a 4840                     swap.w d0
0001d38c 5888                     addaq.l #$04,a0
0001d38e 5889                     addaq.l #$04,a1
0001d390 d0b9 0001 ca3e           add.l $0001ca3e [00000000],d0
0001d396 51cf ffe8                dbf .w d7,#$ffe8 == $0001d380 (F)
0001d39a 4e75                     rts  == $000000fe
0001d39c 6000 0016                bra.w #$0016 == $0001d3b4 (T)
0001d3a0 43f9 0001 d718           lea.l $0001d718,a1
0001d3a6 303c 001f                move.w #$001f,d0
0001d3aa 3298                     move.w (a0)+ [0000],(a1) [00c0]
0001d3ac 5889                     addaq.l #$04,a1
0001d3ae 51c8 fffa                dbf .w d0,#$fffa == $0001d3aa (F)
0001d3b2 4e75                     rts  == $000000fe

0001d3b4 42b9 0006 3190           clr.l $00063190 [00000000]
0001d3ba 41f9 0002 0000           lea.l $00020000,a0
0001d3c0 43f9 0006 3194           lea.l $00063194,a1
0001d3c6 2448                     movea.l a0,a2
0001d3c8 7204                     moveq #$04,d1
0001d3ca 303c 1f40                move.w #$1f40,d0
0001d3ce 12d8                     move.b (a0)+ [00],(a1)+ [00]
0001d3d0 51c8 fffc                dbf .w d0,#$fffc == $0001d3ce (F)
0001d3d4 51c9 fff4                dbf .w d1,#$fff4 == $0001d3ca (F)
0001d3d8 4e75                     rts  == $000000fe

0001d3da 48e7 80c0                movem.l d0/a0-a1,-(a7)
0001d3de 43f9 0006 3190           lea.l $00063190,a1
0001d3e4 303c 01dc                move.w #$01dc,d0
0001d3e8 4cd8 00fe                movem.l (a0)+,d1-d7
0001d3ec 48d1 00fe                movem.l d1-d7,(a1)
0001d3f0 d3fc 0000 001c           adda.l #$0000001c,a1
0001d3f6 4cd8 00fe                movem.l (a0)+,d1-d7
0001d3fa 48d1 00fe                movem.l d1-d7,(a1)
0001d3fe d3fc 0000 001c           adda.l #$0000001c,a1
0001d404 4cd8 00fe                movem.l (a0)+,d1-d7
0001d408 48d1 00fe                movem.l d1-d7,(a1)
0001d40c d3fc 0000 001c           adda.l #$0000001c,a1
0001d412 51c8 ffd4                dbf .w d0,#$ffd4 == $0001d3e8 (F)
0001d416 4cdf 0301                movem.l (a7)+,d0/a0-a1
0001d41a 4e75                     rts  == $000000fe

0001d41c 48e7 8040                movem.l d0/a1,-(a7)
0001d420 43f9 0006 3190           lea.l $00063190,a1
0001d426 303c 0724                move.w #$0724,d0
0001d42a 4cd8 00fe                movem.l (a0)+,d1-d7
0001d42e 48d1 00fe                movem.l d1-d7,(a1)
0001d432 d3fc 0000 001c           adda.l #$0000001c,a1
0001d438 51c8 fff0                dbf .w d0,#$fff0 == $0001d42a (F)
0001d43c 4cdf 0201                movem.l (a7)+,d0/a1
0001d440 4e75                     rts  == $000000fe

0001d442 0839 0006 00df f002      btst.b #$0006,$00dff002
0001d44a 6600 fff6                bne.w #$fff6 == $0001d442 (T)
0001d44e 4e75                     rts  == $000000fe

0001d450 4ff9 0001 d6de           lea.l $0001d6de,a7
0001d456 6100 ec80                bsr.w #$ec80 == $0001c0d8
0001d45a 0839 0005 0007 c875      btst.b #$0005,$0007c875 [00]
0001d462 670a                     beq.b #$0a == $0001d46e (F)
0001d464 42b9 0007 c87c           clr.l $0007c87c [00000000]
0001d46a 6000 ebac                bra.w #$ebac == $0001c018 (T)
0001d46e 0839 0006 0007 c875      btst.b #$0006,$0007c875 [00]
0001d476 6700 0074                beq.w #$0074 == $0001d4ec (F)
0001d47a 203c 0000 1f40           move.l #$00001f40,d0
0001d480 6100 fe5c                bsr.w #$fe5c == $0001d2de
0001d484 33fc 4000 00df f100      move.w #$4000,$00dff100
0001d48c 41f9 0001 d4cc           lea.l $0001d4cc,a0
0001d492 6100 ff0c                bsr.w #$ff0c == $0001d3a0
0001d496 41f9 0005 6460           lea.l $00056460,a0
0001d49c 6100 ff3c                bsr.w #$ff3c == $0001d3da
0001d4a0 13fc 002c 0001 d6e8      move.b #$2c,$0001d6e8 [f3]
0001d4a8 13fc 00f4 0001 d6ec      move.b #$f4,$0001d6ec [f4]
0001d4b0 303c 0064                move.w #$0064,d0
0001d4b4 6100 ee42                bsr.w #$ee42 == $0001c2f8
0001d4b8 7003                     moveq #$03,d0
0001d4ba 4eb9 0000 4010           jsr $00004010
0001d4c0 303c 0600                move.w #$0600,d0
0001d4c4 6100 ee32                bsr.w #$ee32 == $0001c2f8
0001d4c8 6000 eb4e                bra.w #$eb4e == $0001c018 (T)

0001d4cc 0000 0ec2                or.b #$c2,d0
0001d4d0 0e80                     illegal
0001d4d2 0a40 0820                eor.w #$0820,d0
0001d4d6 0e60 0ea8                [ moves.w d0,-(a0) [4004] ]
0001d4d8 0ea8 0eca 0ea0           [ moves.l d0,(a0,$0ea0) == $00c055d0 [00000000] ]
0001d4da 0eca                     illegal
0001d4dc 0ea0 0eee                [ moves.l d0,-(a0) [00004004] ]
0001d4de 0eee 0222 0444           [ cas.l d2,d0,(a6,$0444) == $00c03ee8 [00000000] ]

0001d4e0 0222 0444                and.b #$44,-(a2) [00]
0001d4e4 0666 0888                add.w #$0888,-(a6) [9bc2]
0001d4e8 0aaa 0ccc 203c 0000      eor.l #$0ccc203c,(a2,$0000) == $00000001 [00000000]
0001d4f0 2800                     move.l d0,d4
0001d4f2 6100 fdea                bsr.w #$fdea == $0001d2de
0001d4f6 41f9 0004 9c40           lea.l $00049c40,a0
0001d4fc 6100 fea2                bsr.w #$fea2 == $0001d3a0
0001d500 41f9 0004 9c80           lea.l $00049c80,a0
0001d506 6100 ff14                bsr.w #$ff14 == $0001d41c
0001d50a 13fc 002c 0001 d6e8      move.b #$2c,$0001d6e8 [f3]
0001d512 13fc 002b 0001 d6ec      move.b #$2b,$0001d6ec [f4]
0001d51a 303c 0014                move.w #$0014,d0
0001d51e 6100 edd8                bsr.w #$edd8 == $0001c2f8
0001d522 7002                     moveq #$02,d0
0001d524 4eb9 0000 4010           jsr $00004010
0001d52a 303c 0200                move.w #$0200,d0
0001d52e 6100 edc8                bsr.w #$edc8 == $0001c2f8
0001d532 6000 eae4                bra.w #$eae4 == $0001c018 (T)
0001d536 303c 0200                move.w #$0200,d0
0001d53a 6100 edbc                bsr.w #$edbc == $0001c2f8
0001d53e 6000 ead8                bra.w #$ead8 == $0001c018 (T)
0001d542 33c0 00df f180           move.w d0,$00dff180
0001d548 5240                     addq.w #$01,d0
0001d54a 6000 fff6                bra.w #$fff6 == $0001d542 (T)


L0001D54E dc.w $0000, $0000, $0000, $0000, $0000, $0000, $0000, $0000                  ;................
L0001D55E dc.w $0000, $0000, $0000, $0000, $0000, $0000, $0000, $0000                  ;................
L0001D56E dc.w $0000, $0000, $0000, $0000, $0000, $0000, $0000, $0000                  ;................
L0001D57E dc.w $0000, $0000, $0000, $0000, $0000, $0000, $0000, $0000                  ;................
L0001D58E dc.w $0000, $0000, $0000, $0000, $0000, $0000, $0000, $0000                  ;................
L0001D59E dc.w $0000, $0000, $0000, $0000, $0000, $0000, $0000, $0000                  ;................
L0001D5AE dc.w $0000, $0000, $0000, $0000, $0000, $0000, $0000, $0000                  ;................
L0001D5BE dc.w $0000, $0000, $0000, $0000, $0000, $0000, $0000, $0000                  ;................
L0001D5CE dc.w $0000, $0000, $0000, $0000, $0000, $0000, $0000, $0000                  ;................
L0001D5DE dc.w $0000, $0000, $0000, $0000, $0000, $0000, $0000, $0000                  ;................
L0001D5EE dc.w $0000, $0000, $0000, $0000, $0000, $0000, $0000, $0000                  ;................
L0001D5FE dc.w $0000, $0000, $0000, $0000, $0000, $0000, $0000, $0000                  ;................
L0001D60E dc.w $0000, $0000, $0000, $0000, $0000, $0000, $0000, $0000                  ;................
L0001D61E dc.w $0000, $0000, $0000, $0000, $0000, $0000, $0000, $0000                  ;................
L0001D62E dc.w $0000, $0000, $0000, $0000, $0000, $0000, $0000, $0000                  ;................
L0001D63E dc.w $0000, $0000, $0000, $0000, $0000, $0000, $0000, $0000                  ;................
L0001D64E dc.w $0000, $0000, $0000, $0000, $0000, $0000, $0000, $0000                  ;................
L0001D65E dc.w $0000, $0000, $0000, $0000, $0000, $0000, $0000, $0000                  ;................
L0001D66E dc.w $0000, $0000, $0000, $0000, $0000, $0000, $0000, $0000                  ;................
L0001D67E dc.w $0000, $0000, $0000, $0000, $0000, $0000, $0000, $0000                  ;................
L0001D68E dc.w $0000, $0000, $0000, $0000, $0000, $0000, $0000, $0000                  ;................
L0001D69E dc.w $0000, $0000, $0000, $0000, $0000, $0000, $0000, $0000                  ;................
L0001D6AE dc.w $0000, $0000, $0000, $0000, $0000, $0000, $0000, $0000                  ;................
L0001D6BE dc.w $0000, $0000, $00C7, $8978, $00C7, $8978, $00C7, $848C                  ;.......x...x....
L0001D6CE dc.w $00C7, $871E, $00C7, $8104, $0000, $0000, $0000, $0000                  ;................
L0001D6DE dc.w $0000, $0000, $00FF, $FF00, $008E, $F381, $0090, $F4C1                  ;................
L0001D6EE dc.w $00E0, $0006, $00E4, $0006, $00E8, $0006, $00EC, $0006                  ;................
L0001D6FE dc.w $00F0, $0006, $00E2, $3190, $00E6, $50D0, $00EA, $7010                  ;......1...P...p.
L0001D70E dc.w $00EE, $8F50, $00F2, $AE90, $0180, $0000, $0182, $0000                  ;...P............
L0001D71E dc.w $0184, $0000, $0186, $0000, $0188, $0000, $018A, $0000                  ;................
L0001D72E dc.w $018C, $0B51, $018E, $0D61, $0190, $0E70, $0192, $0F80                  ;...Q...a...p....
L0001D73E dc.w $0194, $0F90, $0196, $0FA0, $0198, $0FB0, $019A, $0FC0                  ;................
L0001D74E dc.w $019C, $0FE0, $019E, $0FF0, $01A0, $0045, $01A2, $0900                  ;...........E....
L0001D75E dc.w $01A4, $0FFF, $01A6, $0033, $01A8, $0067, $01AA, $0222                  ;.......3...g..."
L0001D76E dc.w $01AC, $0333, $01AE, $0444, $01B0, $0F99, $01B2, $0666                  ;...3...D.......f
L0001D77E dc.w $01B4, $0706, $01B6, $0504, $01B8, $099A, $01BA, $0403                  ;................
L0001D78E dc.w $01BC, $0302, $01BE, $0DDE, $FFFF, $FFFE, $0000, $0521                  ;...............!
L0001D79E dc.w $0310, $0731, $0831, $0A41, $0B51, $0D61, $0E70, $0F80                  ;...1.1.A.Q.a.p..
L0001D7AE dc.w $0F90, $0FA0, $0FB0, $0FC0, $0FE0, $0FF0, $0045, $0900                  ;.............E..
L0001D7BE dc.w $0FFF, $0033, $0067, $0222, $0333, $0444, $0F99, $0666                  ;...3.g.".3.D...f
L0001D7CE dc.w $0706, $0504, $099A, $0403, $0302, $0DDE, $0000, $0000                  ;................
L0001D7DE dc.w $0000, $0000, $0000, $0000, $0000, $0000, $0000, $0000                  ;................
L0001D7EE dc.w $0000, $0000, $0000, $0000, $0000, $0000, $0000, $0000                  ;................
L0001D7FE dc.w $0000, $0000, $0000, $0000, $0000, $0000, $0000, $0000                  ;................
L0001D80E dc.w $0000, $0000, $0000, $0000, $0000, $0000, $0000, $0000                  ;................
L0001D81E dc.w $0000, $0000, $0000, $0000, $0000, $0000, $0000, $0000                  ;................
L0001D82E dc.w $0000, $0000, $0000, $0000, $0000, $0000, $0000, $0000                  ;................
L0001D83E dc.w $0000, $0000, $0000, $0000, $0000, $0000, $0000, $0000                  ;................
L0001D84E dc.w $0000, $0000, $0000, $0000, $0000, $0000, $0000, $0000                  ;................
L0001D85E dc.w $0000, $0000, $0000, $0000, $0000, $0000, $0000, $0000                  ;................
L0001D86E dc.w $0000, $0000, $0000, $0000, $0000, $0000, $0000, $0000                  ;................
L0001D87E dc.w $0000, $0000, $0000, $0000, $0000, $0000, $0000, $0000                  ;................
L0001D88E dc.w $0000, $0000, $0000, $0000, $0000, $0000, $0000, $0000                  ;................
L0001D89E dc.w $0000, $0000, $0000, $0000, $0000, $0000, $0000, $0000                  ;................
L0001D8AE dc.w $0000, $0000, $0000, $0000, $0000, $0000, $0000, $0000                  ;................
L0001D8BE dc.w $0000, $0000, $0000, $0000, $0000, $0000, $0000, $0000                  ;................
L0001D8CE dc.w $0000, $0000, $0000, $0000, $0000, $0000, $0000, $0000                  ;................
L0001D8DE dc.w $0000, $0000, $0000, $0000, $0000, $0000, $0000, $0000                  ;................
L0001D8EE dc.w $0000, $0000, $0000, $0000, $0000, $0000, $0000, $0000                  ;................
L0001D8FE dc.w $0000, $0000, $0000, $0000, $0000, $0000, $0000, $0000                  ;................
L0001D90E dc.w $0000, $0000, $0000, $0000, $0000, $0000, $0000, $0000                  ;................
L0001D91E dc.w $0000, $0000, $0000, $0000, $0000, $0000, $0000, $0000                  ;................
L0001D92E dc.w $0000, $0000, $0000, $0000, $0000, $0000, $0000, $0000                  ;................
L0001D93E dc.w $0000, $0000, $0000, $0000, $0000, $0000, $0000, $0000                  ;................
L0001D94E dc.w $0000, $0000, $0000, $0000, $0000, $0000, $0000, $0000                  ;................
L0001D95E dc.w $0000, $0000, $0000, $0000, $0000, $0000, $0000, $0000                  ;................
L0001D96E dc.w $0000, $0000, $0000, $0000, $0000, $0000, $0000, $0000                  ;................
L0001D97E dc.w $0000, $0000, $0000, $0000, $0000, $0000, $0000, $0000                  ;................
L0001D98E dc.w $0000, $0000, $0000, $0000, $0000, $0000, $0000, $0000                  ;................
L0001D99E dc.w $0000, $0000, $0000, $0000, $0000, $0000, $0000, $0000                  ;................
L0001D9AE dc.w $0000, $0000, $0000, $0000, $0000, $0000, $0000, $0000                  ;................
L0001D9BE dc.w $0000, $0000, $0000, $0000, $0000, $0000, $0000, $0000                  ;................
L0001D9CE dc.w $0000, $0000, $0000, $0000, $0000, $0000, $0000, $0000                  ;................
L0001D9DE dc.w $0000, $0000, $0000, $0000, $0000, $0000, $0000, $0000                  ;................
L0001D9EE dc.w $0000, $0000, $0000, $0000, $0000, $0000, $0000, $0000                  ;................
L0001D9FE dc.w $0000, $0000, $0000, $0000, $0000, $0000, $0000, $0000                  ;................
L0001DA0E dc.w $0000, $0000, $0000, $0000, $0000, $0000, $0000, $0000                  ;................
L0001DA1E dc.w $0000, $0000, $0000, $0000, $0000, $0000, $0000, $0000                  ;................
L0001DA2E dc.w $0000, $0000, $0000, $0000, $0000, $0000, $0000, $0000                  ;................
L0001DA3E dc.w $0000, $0000, $0000, $0000, $0000, $0000, $0000, $0000                  ;................
L0001DA4E dc.w $0000, $0000, $0000, $0000, $0000, $0000, $0000, $0000                  ;................
L0001DA5E dc.w $0000, $0000, $0000, $0000, $0000, $0000, $0000, $0000                  ;................
L0001DA6E dc.w $0000, $0000, $0000, $0000, $0000, $0000, $0000, $0000                  ;................
L0001DA7E dc.w $0000, $0000, $0000, $0000, $0000, $0000, $0000, $0000                  ;................
L0001DA8E dc.w $0000, $0000, $0000, $0000, $0000, $0000, $0000, $0000                  ;................
L0001DA9E dc.w $0000, $0000, $0000, $0000, $0000, $0000, $0000, $0000                  ;................
L0001DAAE dc.w $0000, $0000, $0000, $0000, $0000, $0000, $0000, $0000                  ;................
L0001DABE dc.w $0000, $0000, $0000, $0000, $0000, $0000, $0000, $0000                  ;................
L0001DACE dc.w $0000, $0000, $0000, $0000, $0000, $0000, $0000, $0000                  ;................
L0001DADE dc.w $0000, $0000, $0000, $0000, $0000, $0000, $0000, $0000                  ;................
L0001DAEE dc.w $0000, $0000, $0000, $0000, $0000, $0000, $0000, $0000                  ;................
L0001DAFE dc.w $0000, $0000, $0000, $0000, $0000, $0000, $0000, $0000                  ;................
L0001DB0E dc.w $0000, $0000, $0000, $0000, $0000, $0000, $0000, $0000                  ;................
L0001DB1E dc.w $0000, $0000, $0000, $0000, $0000, $0000, $0000, $0000                  ;................
L0001DB2E dc.w $0000, $0000, $0000, $0000, $0000, $0000, $0000, $0000                  ;................
L0001DB3E dc.w $0000, $0000, $0000, $0000, $0000, $0000, $0000, $0000                  ;................
L0001DB4E dc.w $0000, $0000, $0000, $0000, $0000, $0000, $0000, $0000                  ;................
L0001DB5E dc.w $0000, $0000, $0000, $0000, $0000, $0000, $0000, $0000                  ;................
L0001DB6E dc.w $0000, $0000, $0000, $0000, $0000, $0000, $0000, $0000                  ;................
L0001DB7E dc.w $0000, $0000, $0000, $0000, $0000, $0000, $0000, $0000                  ;................
L0001DB8E dc.w $0000, $0000, $0000, $0000, $0000, $0000, $0000, $0000                  ;................
L0001DB9E dc.w $0000, $0000, $0000, $0000, $0000, $0000, $0000, $0000                  ;................
L0001DBAE dc.w $0000, $0000, $0000, $0000, $0000, $0000, $0000, $0000                  ;................
L0001DBBE dc.w $0000, $0000, $0000, $0000, $0000, $0000, $0000, $0000                  ;................
L0001DBCE dc.w $0000, $0000, $0000, $0000, $0000, $0000, $0000, $0000                  ;................
L0001DBDE dc.w $0000, $0000, $0000, $0000, $0000, $0000, $0000, $0000                  ;................
L0001DBEE dc.w $0000, $0000, $0000, $0000, $0000, $0000, $0000, $0000                  ;................
L0001DBFE dc.w $0000, $0000, $0000, $0000, $0000, $0000, $0000, $0000                  ;................
L0001DC0E dc.w $0000, $0000, $0000, $0000, $0000, $0000, $0000, $0000                  ;................
L0001DC1E dc.w $0000, $0000, $0000, $0000, $0000, $0000, $0000, $0000                  ;................
L0001DC2E dc.w $0000, $0000, $0000, $0000, $0000, $0000, $0000, $0000                  ;................
L0001DC3E dc.w $0000, $0000, $0000, $0000, $0000, $0000, $0000, $0000                  ;................
L0001DC4E dc.w $0000, $0000, $0000, $0000, $0000, $0000, $0000, $0000                  ;................
L0001DC5E dc.w $0000, $0000, $0000, $0000, $0000, $0000, $0000, $0000                  ;................
L0001DC6E dc.w $0000, $0000, $0000, $0000, $0000, $0000, $0000, $0000                  ;................
L0001DC7E dc.w $0000, $0000, $0000, $0000, $0000, $0000, $0000, $0000                  ;................
L0001DC8E dc.w $0000, $0000, $0000, $0000, $0000, $0000, $0000, $0000                  ;................
L0001DC9E dc.w $0000, $0000, $0000, $0000, $0000, $0000, $0000, $0000                  ;................
L0001DCAE dc.w $0000, $0000, $0000, $0000, $0000, $0000, $0000, $0000                  ;................
L0001DCBE dc.w $0000, $0000, $0000, $0000, $0000, $0000, $0000, $0000                  ;................
L0001DCCE dc.w $0000, $0000, $0000, $0000, $0000, $0000, $0000, $0000                  ;................
L0001DCDE dc.w $0000, $0000, $0000, $0000, $0000, $0000, $0000, $0000                  ;................
L0001DCEE dc.w $0000, $0000, $0000, $0000, $0000, $0000, $0000, $0000                  ;................
L0001DCFE dc.w $0000, $0000, $0000, $0000, $0000, $0000, $0000, $0000                  ;................
L0001DD0E dc.w $0000, $0000, $0000, $0000, $0000, $0000, $0000, $0000                  ;................
L0001DD1E dc.w $0000, $0000, $0000, $0000, $0000, $0000, $0000, $0000                  ;................
L0001DD2E dc.w $0000, $0000, $0000, $0000, $0000, $0000, $0000, $0000                  ;................
L0001DD3E dc.w $0000, $0000, $0000, $0000, $0000, $0000, $0000, $0000                  ;................
L0001DD4E dc.w $0000, $0000, $0000, $0000, $0000, $0000, $0000, $0000                  ;................
L0001DD5E dc.w $0000, $0000, $0000, $0000, $0000, $0000, $0000, $0000                  ;................
L0001DD6E dc.w $0000, $0000, $0000, $0000, $0000, $0000, $0000, $0000                  ;................
L0001DD7E dc.w $0000, $0000, $0000, $0000, $0000, $0000, $0000, $0000                  ;................
L0001DD8E dc.w $0000, $0000, $0000, $0000, $0000, $0000, $0000, $0000                  ;................
L0001DD9E dc.w $0000, $0000, $0000, $0000, $0000, $0000, $0000, $0000                  ;................
L0001DDAE dc.w $0000, $0000, $0000, $0000, $0000, $0000, $0000, $0000                  ;................
L0001DDBE dc.w $0000, $0000, $0000, $0000, $0000, $0000, $0000, $0000                  ;................
L0001DDCE dc.w $0000, $0000, $0000, $0000, $0000, $0000, $0000, $0000                  ;................
L0001DDDE dc.w $0000, $0000, $0000, $0000, $0000, $0000, $0000, $0000                  ;................
L0001DDEE dc.w $0000, $0000, $0000, $0000, $0000, $0000, $0000, $0000                  ;................
L0001DDFE dc.w $0000, $0000, $0000, $0000, $0000, $0000, $0000, $0000                  ;................
L0001DE0E dc.w $0000, $0000, $0000, $0000, $0000, $0000, $0000, $0000                  ;................
L0001DE1E dc.w $0000, $0000, $0000, $0000, $0000, $0000, $0000, $0000                  ;................
L0001DE2E dc.w $0000, $0000, $0000, $0000, $0000, $0000, $0000, $0000                  ;................
L0001DE3E dc.w $0000, $0000, $0000, $0000, $0000, $0000, $0000, $0000                  ;................
L0001DE4E dc.w $0000, $0000, $0000, $0000, $0000, $0000, $0000, $0000                  ;................
L0001DE5E dc.w $0000, $0000, $0000, $0000, $0000, $0000, $0000, $0000                  ;................
L0001DE6E dc.w $0000, $0000, $0000, $0000, $0000, $0000, $0000, $0000                  ;................
L0001DE7E dc.w $0000, $0000, $0000, $0000, $0000, $0000, $0000, $0000                  ;................
L0001DE8E dc.w $0000, $0000, $0000, $0000, $0000, $0000, $0000, $0000                  ;................
L0001DE9E dc.w $0000, $0000, $0000, $0000, $0000, $0000, $0000, $0000                  ;................
L0001DEAE dc.w $0000, $0000, $0000, $0000, $0000, $0000, $0000, $0000                  ;................
L0001DEBE dc.w $0000, $0000, $0000, $0000, $0000, $0000, $0000, $0000                  ;................
L0001DECE dc.w $0000, $0000, $0000, $0000, $0000, $0000, $0000, $0000                  ;................
L0001DEDE dc.w $0000, $0000, $0000, $0000, $0000, $0000, $0000, $0000                  ;................
L0001DEEE dc.w $0000, $0000, $0000, $0000, $0000, $0000, $0000, $0000                  ;................
L0001DEFE dc.w $0000, $0000, $0000, $0000, $0000, $0000, $0000, $0000                  ;................
L0001DF0E dc.w $0000, $0000, $0000, $0000, $0000, $0000, $0000, $0000                  ;................
L0001DF1E dc.w $0000, $0000, $0000, $0000, $0000, $0000, $0000, $0000                  ;................
L0001DF2E dc.w $0000, $0000, $0000, $0000, $0000, $0000, $0000, $0000                  ;................
L0001DF3E dc.w $0000, $0000, $0000, $0000, $0000, $0000, $0000, $0000                  ;................
L0001DF4E dc.w $0000, $0000, $0000, $0000, $0000, $0000, $0000, $0000                  ;................
L0001DF5E dc.w $0000, $0000, $0000, $0000, $0000, $0000, $0000, $0000                  ;................
L0001DF6E dc.w $0000, $0000, $0000, $0000, $0000, $0000, $0000, $0000                  ;................
L0001DF7E dc.w $0000, $0000, $0000, $0000, $0000, $0000, $0000, $0000                  ;................
L0001DF8E dc.w $0000, $0000, $0000, $0000, $0000, $0000, $0000, $0000                  ;................
L0001DF9E dc.w $0000, $0000, $0000, $0000, $0000, $0000, $0000, $0000                  ;................
L0001DFAE dc.w $0000, $0000, $0000, $0000, $0000, $0000, $0000, $0000                  ;................
L0001DFBE dc.w $0000, $0000, $0000, $0000, $0000, $0000, $0000, $0000                  ;................
L0001DFCE dc.w $0000, $0000, $0000, $0000, $0000, $0000, $0000, $0000                  ;................
L0001DFDE dc.w $0000, $0000, $0000, $0000, $0000, $0000, $0000, $0000                  ;................
L0001DFEE dc.w $0000, $0000, $0000, $0000, $0000, $0000, $0000, $0000                  ;................
L0001DFFE dc.w $0000 


