

                section panel,code_c
                org     $0                                          ; original load address


                ;--------------------- includes and constants ---------------------------
                INCDIR      "include"
                INCLUDE     "hw.i"


                ;-------------------------- title prg start -----------------------------
                ; The original binaries of the game start with a long word that points
                ; to an entry point of the code.
titleprg_start
        dc.l    $00004000                                       ; original start address $00004000


                ;----------------------------- entry point ------------------------------
entry_point
L00004000 6000 017e                bra.w    start_up                            ; jmp $00004180
L00004004 6000 018e                bra.w L00004194
L00004008 6000 01d6                bra.w L000041e0
L0000400c 6000 01d2                bra.w L000041e0
L00004010 6000 022c                bra.w L0000423e
L00004014 6000 020c                bra.w L00004222
L00004018 6000 02dc                bra.w L000042f6


L0000401c ffff                     illegal
L0000401e ffff                     illegal
L00004020 8000                     or.b d0,d0
L00004022 0100                     btst.l d0,d0
L00004024 8080                     or.l d0,d0
L00004026 0001 ba1b                or.b #$1b,d1
L0000402a 0001 ba1e                or.b #$1e,d1
L0000402e 0000 0000                or.b #$00,d0
L00004032 0001 ba41                or.b #$41,d1
L00004036 0500                     btst.l d2,d0
L00004038 0001 b9a6                or.b #$a6,d1
L0000403c 0001 b9aa                or.b #$aa,d1
L00004040 0101                     btst.l d0,d1
L00004042 0004 fd00                or.b #$00,d4
L00004046 0000 0000                or.b #$00,d0
L0000404a 0000 0000                or.b #$00,d0
L0000404e 0000 0000                or.b #$00,d0
L00004052 0000 0000                or.b #$00,d0
L00004056 0000 0000                or.b #$00,d0
L0000405a 0000 0000                or.b #$00,d0
L0000405e 0000 0038                or.b #$38,d0
L00004062 0000 fb6c                or.b #$6c,d0
L00004066 0666 0000                add.w #$0000,-(a6) [9bc2]
L0000406a 4d3a 0001                [ chk.l (pc,$0001) == $0000406d,d6 ]
L0000406c 0001 018f                or.b #$8f,d1
L00004070 0000 003a                or.b #$3a,d0
L00004074 3a06                     move.w d6,d5
L00004076 0018 0001                or.b #$01,(a0)+ [23]
L0000407a 8050                     or.w (a0) [236b],d0
L0000407c 0001 ba27                or.b #$27,d1
L00004080 0001 ba28                or.b #$28,d1
L00004084 0000 0000                or.b #$00,d0
L00004088 0001 bb55                or.b #$55,d1 
L0000408c 0100                     btst.l d0,d0
L0000408e 0001 b9ac                or.b #$ac,d1
L00004092 0001 b9ae                or.b #$ae,d1
L00004096 0101                     btst.l d0,d1
L00004098 0001 1e00                or.b #$00,d1
L0000409c 0000 0000                or.b #$00,d0
L000040a0 0000 0000                or.b #$00,d0
L000040a4 0000 0000                or.b #$00,d0
L000040a8 0000 0000                or.b #$00,d0
L000040ac 0000 0000                or.b #$00,d0
L000040b0 0000 0000                or.b #$00,d0
L000040b4 0000 0018                or.b #$18,d0
L000040b8 0000 ca18                or.b #$18,d0
L000040bc 0a28 0000 4d3a           eor.b #$00,(a0,$4d3a) == $00fee450 [00]
L000040c2 0001 01bf                or.b #$bf,d1
L000040c6 001e 0018                or.b #$18,(a6)+ [00]
L000040ca 1800                     move.b d0,d4
L000040cc 0006 0002                or.b #$02,d6
L000040d0 8010                     or.b (a0) [23],d0
L000040d2 0001 ba2a                or.b #$2a,d1
L000040d6 0001 ba2b                or.b #$2b,d1
L000040da 0000 0000                or.b #$00,d0
L000040de 0001 bbae                or.b #$ae,d1
L000040e2 0100                     btst.l d0,d0
L000040e4 0001 b9ac                or.b #$ac,d1
L000040e8 0001 b9ae                or.b #$ae,d1
L000040ec 0101                     btst.l d0,d1
L000040ee 0001 1e00                or.b #$00,d1
L000040f2 0000 0000                or.b #$00,d0
L000040f6 0000 0000                or.b #$00,d0
L000040fa 0000 0000                or.b #$00,d0
L000040fe 0000 0000                or.b #$00,d0
L00004102 0000 0000                or.b #$00,d0
L00004106 0000 0000                or.b #$00,d0
L0000410a 0000 0011                or.b #$11,d0
L0000410e 0000 ed94                or.b #$94,d0
L00004112 06b8 0000 4d3a 0001      add.l #$00004d3a,$0001 [00000000]
L0000411a 00d3 001e                [ cmp2.b (a3),d0 ]
L0000411c 001e 001e                or.b #$1e,(a6)+ [00]
L00004120 1e00                     move.b d0,d7
L00004122 000c                     illegal
L00004124 0004 8084                or.b #$84,d4
L00004128 0001 ba34                or.b #$34,d1
L0000412c 0001 ba37                or.b #$37,d1
L00004130 0000 0000                or.b #$00,d0
L00004134 0001 ba41                or.b #$41,d1
L00004138 0500                     btst.l d2,d0
L0000413a 0001 b9b4                or.b #$b4,d1
L0000413e 0001 b9bb                or.b #$bb,d1
L00004142 0101                     btst.l d0,d1
L00004144 0001 ff00                or.b #$00,d1
L00004148 0000 0000                or.b #$00,d0
L0000414c 0000 0000                or.b #$00,d0
L00004150 0000 0000                or.b #$00,d0
L00004154 0000 0000                or.b #$00,d0
L00004158 0000 0103                or.b #$03,d0
L0000415c 1400                     move.b d0,d2
L0000415e 0605 0006                add.b #$06,d5
L00004162 003e                     illegal
L00004164 0001 14ca                or.b #$ca,d1
L00004168 11d6 0001                move.b (a6) [00],$0001 [00]
L0000416c 2de0                     illegal
L0000416e 054b 0279                movep.l (a3,$0279) == $00fe8967,d2
L00004172 0000 0038                or.b #$38,d0
L00004176 3800                     move.w d0,d4
L00004178 0018 0008                or.b #$08,(a0)+ [23]
L0000417c 0000 0d69                or.b #$69,d0



                ;----------------------------- entry point ------------------------------
start_up                                                            ; original routine address $00004180
L00004180           lea.l   L00004d52,a0
L00004186           lea.l   L00004bfa,a1
L0000418c           bsr.w   L000049cc
L00004190           bra.w   L00004194
L00004194           movem.l d0/a0-a1,-(a7)
L00004198           move.b  #$00,L00004022
L0000419e           move.b  #$00,L00004023
L000041a4           lea.l   $4024,a0
L000041a8           lea.l   $00dff0a8,a1
L000041ae           bsr.b   L000041c2
L000041b0           bsr.b   L000041c2
L000041b2           bsr.b   L000041c2
L000041b4           bsr.b   L000041c2
L000041b6           move.w  #$0000,L00004020
L000041bc           movem.l (a7)+,d0/a0-a1
L000041c0           rts                                             ; Where does this go? whats on the stack?



L000041c2           move.w  #$0000,(a0)
L000041c6           move.w  #$0001,(a0,$004a)
L000041cc           move.w  #$0000,(a0,$004c)
L000041d2           move.w  #$0000,(a1)
L000041d6           adda.w  #$0056,a0
L000041da           adda.w  #$0010,a1
L000041de           rts




L000041e0           movem.l d0/d7/a0-a2,-(a7)
L000041e4           subq.w  #$01,d0
L000041e6           bmi.b   L000041ee
L000041e8           cmp.w   #$0003,d0
L000041ec           bcs.b   L000041f2
L000041ee           bsr.b   L00004194
L000041f0           bra.b   L0000421c
L000041f2           lea.l   L0001b9dc,a2
L000041f8           asl.w   #$03,d0
L000041fa           adda.w  d0,a2
L000041fc           lea.l   L00004024,a0
L00004200           lea.l   $00dff0a8,a1
L00004206           moveq   #$03,d7
L00004208           tst.w   (a2)+
L0000420a           bne.b   L00004216
L0000420c           adda.w  #$0056,a0
L00004210           adda.w  #$0010,a1
L00004214           bra.b   L00004218
L00004216           bsr.b   L000041c2
L00004218           dbf.w   d7,L00004208
L0000421c           movem.l (a7)+,d0/d7/a0-a2
L00004220           rts


L00004222           tst.w   L00004126
L00004226           beq.b   L0000422e
L00004228           cmp.b   L00004023,d0
L0000422c           bcs.b   L0000423c
L0000422e           movem.l d0/d7/a0-a2,-(a7)
L00004232           move.w  #$4000,d1
L00004236           move.b  d0,L00004023
L0000423a           bra.b   L0000424a
L0000423c           rts



L0000423e           movem.l d0/d7/a0-a2,-(a7)
L00004242           move.w  #$8000,d1
L00004246           move.b  d0,$4022
L0000424a           clr.w   L0000417e
L0000424e           subq.w  #$01,d0
L00004250           bmi.b   L00004258
L00004252           cmp.w   #$0003,d0
L00004256           bcs.b   L00004260
L00004258           bsr.w   L00004194
L0000425c           bra.w   L000042f0
L00004260           lea.l   L0001b9dc,a0
L00004266           asl.w   #$03,d0
L00004268           adda.w  d0,a0
L0000426a           lea.l   L00004024,a1
L0000426e           moveq   #$03,d7
L00004270           move.w  (a0)+,d0
L00004272           beq.b   L000042e4
L00004274           lea.l   (a0,d0,$fe),a2
L00004278           moveq   #$00,d0
L0000427a           move.w  d0,(a1,$004c)
L0000427e           move.l  d0,(a1,$0002)
L00004282           move.l  d0,(a1,$000a)
L00004286           move.b  d0,(a1,$0013)
L0000428a           move.b  #$01,(a1,$0012)
L00004290           move.w  d1,(a1)
L00004292           move.b  (a2)+,d0
L00004294           bpl.b   L000042c8
L00004296           sub.b   #$80,d0
L0000429a           bne.b   L000042aa
L0000429c           movea.l (a1,$0002),a2
L000042a0           cmpa.w  #$0000,a2
L000042a4           bne.b   L00004292
L000042a6           clr.w   (a1)
L000042a8           bra.b   L000042e4
L000042aa           subq.b  #$01,d0
L000042ac           bne.b   L000042b4
L000042ae           move.l  a2,(a1,$0002)
L000042b2           bra.b   L00004292
L000042b4           subq.b  #$01,d0
L000042b6           bne.b   L000042be
L000042b8           move.b  (a2)+,(a1,$0013)
L000042bc           bra.b   L00004292
L000042be           subq.b  #$01,d0
L000042c0           bne.b   L00004292
L000042c2           move.b  (a2)+,(a1,$0012)
L000042c6           bra.b   L00004292
L000042c8           move.l  a2,(a1,$0006)
L000042cc           lea.l   $0001ba06,a2
L000042d2           ext.w   d0
L000042d4           add.w   d0,d0
L000042d6           adda.w  d0,a2
L000042d8           adda.w  (a2),a2
L000042da           move.l  a2,(a1,$000e)
L000042de           move.w  #$0001,(a1,$0052)
L000042e4           lea.l   (a1,$0056),a1
L000042e8           dbf.w   d7,L00004270
L000042ec           or.w    d1,$4020
L000042f0           movem.l (a7)+,d0/d7/a0-a2
L000042f4           rts


L000042f6           lea.l   $00dff000,a6
L000042fc           lea.l   $00004bba,a5
L00004302           clr.w   L0000417c
L00004306           tst.w   L00004020
L0000430a           beq.b   L00004354
L0000430c           addq.w  #$01,$417e
L00004310           clr.w   L00004020
L00004314           lea.l   L00004024,a4
L00004318           move.w  (a4),d7
L0000431a           beq.b   L00004324
L0000431c           bsr.b   L00004360
L0000431e           move.w  d7,(a4)
L00004320           or.w    d7,L00004020
L00004324           lea.l   L0000407a,a4
L00004328           move.w  (a4),d7
L0000432a           beq.b   L00004334
L0000432c           bsr.b   L00004360
L0000432e           move.w  d7,(a4)
L00004330           or.w    d7,L00004020
L00004334           lea.l   L000040d0,a4
L00004338           move.w  (a4),d7
L0000433a           beq.b   L00004344
L0000433c           bsr.b   L00004360
L0000433e           move.w  d7,(a4)
L00004340           or.w    d7,L00004020
L00004344           lea.l   L00004126,a4
L00004348           move.w  (a4),d7
L0000434a           beq.b   L00004354
L0000434c           bsr.b   L00004360
L0000434e           move.w  d7,(a4)
L00004350           or.w    d7,L00004020
L00004354           and.w   #$c000,L00004020
L0000435a           bsr.w   L00004852
L0000435e           rts


L00004360           tst.w   (a4,$0052)
L00004364           beq.w   L000046b2
L00004368           subq.w  #$01,(a4,$0052)
L0000436c           bne.w   L000046b2
L00004370           movea.l (a4,$000e),a3
L00004374           bclr.l  #$0007,d7
L00004378           move.b  (a3)+ [4e],d0
L0000437a           bpl.w   L00004560
L0000437e           bclr.l  #$0003,d7
L00004382           cmp.b   #$a0,d0
L00004386           bcc.b   L00004378
L00004388           lea.l   (pc,$0014),a0
L0000438c           sub.b   #$80,d0
L00004390           ext.w   d0
L00004392           add.w   d0,d0
L00004394           adda.w  d0,a0
L00004396           move.w  (a0),d0
L00004398           beq.b   L00004378
L0000439a           jmp     (a0,d0,$00)



0000439e 0040 00ba                or.w #$00ba,d0
000043a2 00c0                     illegal
000043a4 00c2                     illegal
000043a6 00c4                     illegal
000043a8 00ce                     illegal
000043aa 00d4 00dc                [ cmp2.b (a4),d0 ]
000043ac 00dc                     illegal


000043ae 00ea 00f8 010a           [ cmp2.b (a2,$010a) == $0000010b,d0 ]
000043b0 00f8 010a 0140           [ cmp2.b $0140,d0 ]
000043b2 010a 0140                movep.w (a2,$0140) == $00000141,d0
000043b6 0156                     bchg.b d0,(a6) [00]
000043b8 010c 0132                movep.w (a4,$0132) == $0000168a,d0
000043bc 0158                     bchg.b d0,(a0)+ [23]
000043be 016e 0000                bchg.b d0,(a6,$0000) == $00c03aa4 [00]
000043c2 0000 0000                or.b #$00,d0
000043c6 0000 0000                or.b #$00,d0
000043ca 0000 0000                or.b #$00,d0
>d
000043ce 0000 0000                or.b #$00,d0
000043d2 0000 0000                or.b #$00,d0
000043d6 0000 0000                or.b #$00,d0
000043da 0000 0000                or.b #$00,d0
000043de 266c 000a                movea.l (a4,$000a) == $00001562 [00000000],a3
000043e2 b6fc 0000                cmpa.w #$0000,a3
000043e6 6690                     bne.b #$90 == $00004378 (F)
000043e8 266c 0006                movea.l (a4,$0006) == $0000155e [00000000],a3
000043ec 102b ffff                move.b (a3,-$0001) == $00fe86ed [d0],d0
000043f0 532c 0012                subq.b #$01,(a4,$0012) == $0000156a [00]
>d
000043f4 664e                     bne.b #$4e == $00004444 (F)
000043f6 197c 0001 0012           move.b #$01,(a4,$0012) == $0000156a [00]
000043fc 197c 0000 0013           move.b #$00,(a4,$0013) == $0000156b [00]
00004402 101b                     move.b (a3)+ [4e],d0
00004404 6a3e                     bpl.b #$3e == $00004444 (T)
00004406 0400 0080                sub.b #$80,d0
0000440a 661a                     bne.b #$1a == $00004426 (F)
0000440c 266c 0002                movea.l (a4,$0002) == $0000155a [00000000],a3
00004410 b6fc 0000                cmpa.w #$0000,a3
00004414 66ec                     bne.b #$ec == $00004402 (F)
>d
00004416 397c 0001 004a           move.w #$0001,(a4,$004a) == $000015a2 [0000]
0000441c 397c 0000 004c           move.w #$0000,(a4,$004c) == $000015a4 [0000]
00004422 7e00                     moveq #$00,d7
00004424 4e75                     rts  == $00fc072a
00004426 5300                     subq.b #$01,d0
00004428 6606                     bne.b #$06 == $00004430 (F)
0000442a 294b 0002                move.l a3,(a4,$0002) == $0000155a [00000000]
0000442e 60d2                     bra.b #$d2 == $00004402 (T)
00004430 5300                     subq.b #$01,d0
00004432 6606                     bne.b #$06 == $0000443a (F)
>d
00004434 195b 0013                move.b (a3)+ [4e],(a4,$0013) == $0000156b [00]
00004438 60c8                     bra.b #$c8 == $00004402 (T)
0000443a 5300                     subq.b #$01,d0
0000443c 66c4                     bne.b #$c4 == $00004402 (F)
0000443e 195b 0012                move.b (a3)+ [4e],(a4,$0012) == $0000156a [00]
00004442 60be                     bra.b #$be == $00004402 (T)
00004444 294b 0006                move.l a3,(a4,$0006) == $0000155e [00000000]
00004448 47f9 0001 ba06           lea.l $0001ba06,a3
0000444e 4880                     ext.w d0
00004450 d040                     add.w d0,d0



00004452 d6c0                     adda.w d0,a3
00004454 d6d3                     adda.w (a3) [4e75],a3
00004456 6000 ff20                bra.w #$ff20 == $00004378 (T)
0000445a 294b 000a                move.l a3,(a4,$000a) == $00001562 [00000000]
0000445e 6000 ff18                bra.w #$ff18 == $00004378 (T)
00004462 6000 ff14                bra.w #$ff14 == $00004378 (T)
00004466 6000 ff10                bra.w #$ff10 == $00004378 (T)
0000446a 08c7 0005                bset.l #$0005,d7
0000446e 195b 0051                move.b (a3)+ [4e],(a4,$0051) == $000015a9 [00]
00004472 6000 ff04                bra.w #$ff04 == $00004378 (T)
>d
00004476 0887 0005                bclr.l #$0005,d7
0000447a 6000 fefc                bra.w #$fefc == $00004378 (T)
0000447e 066c 0100 0052           add.w #$0100,(a4,$0052) == $000015aa [0000]
00004484 6000 fef2                bra.w #$fef2 == $00004378 (T)
00004488 0887 0004                bclr.l #$0004,d7
0000448c 08c7 0007                bset.l #$0007,d7
00004490 426c 004c                clr.w (a4,$004c) == $000015a4 [0000]
00004494 6000 0206                bra.w #$0206 == $0000469c (T)
00004498 08c7 0003                bset.l #$0003,d7
0000449c 195b 0024                move.b (a3)+ [4e],(a4,$0024) == $0000157c [00]
>d
000044a0 195b 0025                move.b (a3)+ [4e],(a4,$0025) == $0000157d [00]
000044a4 6000 fed2                bra.w #$fed2 == $00004378 (T)
000044a8 0247 fff8                and.w #$fff8,d7
000044ac 08c7 0000                bset.l #$0000,d7
000044b0 195b 0021                move.b (a3)+ [4e],(a4,$0021) == $00001579 [00]
000044b4 195b 0022                move.b (a3)+ [4e],(a4,$0022) == $0000157a [00]
000044b8 6000 febe                bra.w #$febe == $00004378 (T)
000044bc 0887 0000                bclr.l #$0000,d7
000044c0 6000 feb6                bra.w #$feb6 == $00004378 (T)
000044c4 0247 fff8                and.w #$fff8,d7
>d
000044c8 08c7 0001                bset.l #$0001,d7
000044cc 41f9 0001 b986           lea.l $0001b986,a0
000044d2 7000                     moveq #$00,d0
000044d4 101b                     move.b (a3)+ [4e],d0
000044d6 d040                     add.w d0,d0
000044d8 d0c0                     adda.w d0,a0
000044da d0d0                     adda.w (a0) [236b],a0
000044dc 1958 0032                move.b (a0)+ [23],(a4,$0032) == $0000158a [00]
000044e0 1958 0030                move.b (a0)+ [23],(a4,$0030) == $00001588 [00]
000044e4 2948 0028                move.l a0,(a4,$0028) == $00001580 [00000000]
>d
000044e8 6000 fe8e                bra.w #$fe8e == $00004378 (T)
000044ec 0887 0001                bclr.l #$0001,d7
000044f0 6000 fe86                bra.w #$fe86 == $00004378 (T)
000044f4 0247 fff8                and.w #$fff8,d7
000044f8 08c7 0002                bset.l #$0002,d7
000044fc 195b 0036                move.b (a3)+ [4e],(a4,$0036) == $0000158e [00]
00004500 195b 0034                move.b (a3)+ [4e],(a4,$0034) == $0000158c [00]
00004504 195b 0035                move.b (a3)+ [4e],(a4,$0035) == $0000158d [00]
00004508 6000 fe6e                bra.w #$fe6e == $00004378 (T)
0000450c 0887 0002                bclr.l #$0002,d7

00004510 6000 fe66                bra.w #$fe66 == $00004378 (T)
00004514 41f9 0001 b98c           lea.l $0001b98c,a0
0000451a 7000                     moveq #$00,d0
0000451c 101b                     move.b (a3)+ [4e],d0
0000451e d040                     add.w d0,d0
00004520 d0c0                     adda.w d0,a0
00004522 d0d0                     adda.w (a0) [236b],a0
00004524 2948 0014                move.l a0,(a4,$0014) == $0000156c [00000000]
00004528 6000 fe4e                bra.w #$fe4e == $00004378 (T)
0000452c 41f9 0000 4bea           lea.l $00004bea,a0
>d
00004532 7000                     moveq #$00,d0
00004534 101b                     move.b (a3)+ [4e],d0
00004536 e940                     asl.w #$04,d0
00004538 d0c0                     adda.w d0,a0
0000453a 3958 003c                move.w (a0)+ [236b],(a4,$003c) == $00001594 [0000]
0000453e 2958 003e                move.l (a0)+ [236b0126],(a4,$003e) == $00001596 [00000000]
00004542 3958 0042                move.w (a0)+ [236b],(a4,$0042) == $0000159a [0000]
00004546 2958 0044                move.l (a0)+ [236b0126],(a4,$0044) == $0000159c [00000000]
0000454a 3958 0048                move.w (a0)+ [236b],(a4,$0048) == $000015a0 [0000]
0000454e 0887 0006                bclr.l #$0006,d7
>d
00004552 4a50                     tst.w (a0) [236b]
00004554 6700 fe22                beq.w #$fe22 == $00004378 (T)
00004558 08c7 0006                bset.l #$0006,d7
0000455c 6000 fe1a                bra.w #$fe1a == $00004378 (T)
00004560 0807 0006                btst.l #$0006,d7
00004564 6604                     bne.b #$04 == $0000456a (F)
00004566 d02c 0013                add.b (a4,$0013) == $0000156b [00],d0
0000456a 1940 004f                move.b d0,(a4,$004f) == $000015a7 [00]
0000456e 0807 0000                btst.l #$0000,d7
00004572 670a                     beq.b #$0a == $0000457e (T)
>d
00004574 d02c 0021                add.b (a4,$0021) == $00001579 [00],d0
00004578 196c 0022 0023           move.b (a4,$0022) == $0000157a [00],(a4,$0023) == $0000157b [00]
0000457e 1940 0050                move.b d0,(a4,$0050) == $000015a8 [00]
00004582 4880                     ext.w d0
00004584 906c 003c                sub.w (a4,$003c) == $00001594 [0000],d0
00004588 d040                     add.w d0,d0
0000458a b07c ffd0                cmp.w #$ffd0,d0
0000458e 6d06                     blt.b #$06 == $00004596 (F)
00004590 b07c 002c                cmp.w #$002c,d0
00004594 6f16                     ble.b #$16 == $000045ac (T)
>d
00004596 122c 004f                move.b (a4,$004f) == $000015a7 [00],d1
0000459a 142c 0050                move.b (a4,$0050) == $000015a8 [00],d2
0000459e 362c 003c                move.w (a4,$003c) == $00001594 [0000],d3
000045a2 382c 0054                move.w (a4,$0054) == $000015ac [0000],d4
000045a6 246c 0006                movea.l (a4,$0006) == $0000155e [00000000],a2
000045aa 4afc                     illegal
000045ac 3975 0000 004a           move.w (a5,d0.W,$00) == $00c014b6 [00c0],(a4,$004a) == $000015a2 [0000]
000045b2 0807 0002                btst.l #$0002,d7
000045b6 675a                     beq.b #$5a == $00004612 (T)
000045b8 102c 0050                move.b (a4,$0050) == $000015a8 [00],d0


000045bc d02c 0034                add.b (a4,$0034) == $0000158c [00],d0
000045c0 4880                     ext.w d0
000045c2 906c 003c                sub.w (a4,$003c) == $00001594 [0000],d0
000045c6 d040                     add.w d0,d0
000045c8 b07c ffd0                cmp.w #$ffd0,d0
000045cc 6d06                     blt.b #$06 == $000045d4 (F)
000045ce b07c 002c                cmp.w #$002c,d0
000045d2 6f16                     ble.b #$16 == $000045ea (T)
000045d4 122c 004f                move.b (a4,$004f) == $000015a7 [00],d1
000045d8 142c 0050                move.b (a4,$0050) == $000015a8 [00],d2
>d
000045dc 362c 003c                move.w (a4,$003c) == $00001594 [0000],d3
000045e0 382c 0054                move.w (a4,$0054) == $000015ac [0000],d4
000045e4 246c 0006                movea.l (a4,$0006) == $0000155e [00000000],a2
000045e8 4afc                     illegal
000045ea 3035 0000                move.w (a5,d0.W,$00) == $00c014b6 [00c0],d0
000045ee 906c 004a                sub.w (a4,$004a) == $000015a2 [0000],d0
000045f2 e240                     asr.w #$01,d0
000045f4 48c0                     ext.l d0
000045f6 122c 0035                move.b (a4,$0035) == $0000158d [00],d1
000045fa 4881                     ext.w d1
>d
000045fc 81c1                     divs.w d1,d0
000045fe 3940 003a                move.w d0,(a4,$003a) == $00001592 [0000]
00004602 1941 0039                move.b d1,(a4,$0039) == $00001591 [00]
00004606 d201                     add.b d1,d1
00004608 1941 0038                move.b d1,(a4,$0038) == $00001590 [00]
0000460c 196c 0036 0037           move.b (a4,$0036) == $0000158e [00],(a4,$0037) == $0000158f [00]
00004612 0807 0003                btst.l #$0003,d7
00004616 6750                     beq.b #$50 == $00004668 (T)
00004618 102c 0050                move.b (a4,$0050) == $000015a8 [00],d0
0000461c d02c 0024                add.b (a4,$0024) == $0000157c [00],d0
>d
00004620 4880                     ext.w d0
00004622 906c 003c                sub.w (a4,$003c) == $00001594 [0000],d0
00004626 d040                     add.w d0,d0
00004628 b07c ffd0                cmp.w #$ffd0,d0
0000462c 6d06                     blt.b #$06 == $00004634 (F)
0000462e b07c 002c                cmp.w #$002c,d0
00004632 6f16                     ble.b #$16 == $0000464a (T)
00004634 122c 004f                move.b (a4,$004f) == $000015a7 [00],d1
00004638 142c 0050                move.b (a4,$0050) == $000015a8 [00],d2
0000463c 362c 003c                move.w (a4,$003c) == $00001594 [0000],d3
>d
00004640 382c 0054                move.w (a4,$0054) == $000015ac [0000],d4
00004644 246c 0006                movea.l (a4,$0006) == $0000155e [00000000],a2
00004648 4afc                     illegal
0000464a 3035 0000                move.w (a5,d0.W,$00) == $00c014b6 [00c0],d0
0000464e 906c 004a                sub.w (a4,$004a) == $000015a2 [0000],d0
00004652 48c0                     ext.l d0
00004654 7200                     moveq #$00,d1
00004656 122c 0025                move.b (a4,$0025) == $0000157d [00],d1
0000465a 81c1                     divs.w d1,d0
0000465c 3940 0026                move.w d0,(a4,$0026) == $0000157e [0000]


00004660 4440                     neg.w d0
00004662 c1c1                     muls.w d1,d0
00004664 916c 004a                sub.w d0,(a4,$004a) == $000015a2 [0000]
00004668 0807 0001                btst.l #$0001,d7
0000466c 6712                     beq.b #$12 == $00004680 (T)
0000466e 197c 0001 0033           move.b #$01,(a4,$0033) == $0000158b [00]
00004674 296c 0028 002c           move.l (a4,$0028) == $00001580 [00000000],(a4,$002c) == $00001584 [00000000]
0000467a 196c 0030 0031           move.b (a4,$0030) == $00001588 [00],(a4,$0031) == $00001589 [00]
00004680 08c7 0004                bset.l #$0004,d7
00004684 296c 0014 0018           move.l (a4,$0014) == $0000156c [00000000],(a4,$0018) == $00001570 [00000000]
>d
0000468a 397c 0001 001e           move.w #$0001,(a4,$001e) == $00001576 [0000]
00004690 426c 004c                clr.w (a4,$004c) == $000015a4 [0000]
00004694 302c 0054                move.w (a4,$0054) == $000015ac [0000],d0
00004698 8178 417c                or.w d0,$417c [0000]
0000469c 7000                     moveq #$00,d0
0000469e 102c 0051                move.b (a4,$0051) == $000015a9 [00],d0
000046a2 0807 0005                btst.l #$0005,d7
000046a6 6602                     bne.b #$02 == $000046aa (F)
000046a8 101b                     move.b (a3)+ [4e],d0
000046aa d16c 0052                add.w d0,(a4,$0052) == $000015aa [0000]
>d
000046ae 294b 000e                move.l a3,(a4,$000e) == $00001566 [00000000]
000046b2 0807 0007                btst.l #$0007,d7
000046b6 6600 0198                bne.w #$0198 == $00004850 (F)
000046ba 302c 004a                move.w (a4,$004a) == $000015a2 [0000],d0
000046be 0807 0003                btst.l #$0003,d7
000046c2 6712                     beq.b #$12 == $000046d6 (T)
000046c4 532c 0025                subq.b #$01,(a4,$0025) == $0000157d [00]
000046c8 6604                     bne.b #$04 == $000046ce (F)
000046ca 0887 0003                bclr.l #$0003,d7
000046ce 906c 0026                sub.w (a4,$0026) == $0000157e [0000],d0
>d
000046d2 6000 00d4                bra.w #$00d4 == $000047a8 (T)
000046d6 0807 0000                btst.l #$0000,d7
000046da 6746                     beq.b #$46 == $00004722 (T)
000046dc 532c 0023                subq.b #$01,(a4,$0023) == $0000157b [00]
000046e0 6400 00c6                bcc.w #$00c6 == $000047a8 (T)
000046e4 102c 004f                move.b (a4,$004f) == $000015a7 [00],d0
000046e8 122c 0050                move.b (a4,$0050) == $000015a8 [00],d1
000046ec 1940 0050                move.b d0,(a4,$0050) == $000015a8 [00]
000046f0 4880                     ext.w d0
000046f2 906c 003c                sub.w (a4,$003c) == $00001594 [0000],d0
>d
000046f6 d040                     add.w d0,d0
000046f8 b07c ffd0                cmp.w #$ffd0,d0
000046fc 6d06                     blt.b #$06 == $00004704 (F)
000046fe b07c 002c                cmp.w #$002c,d0
00004702 6f16                     ble.b #$16 == $0000471a (T)
00004704 122c 004f                move.b (a4,$004f) == $000015a7 [00],d1
00004708 142c 0050                move.b (a4,$0050) == $000015a8 [00],d2
0000470c 362c 003c                move.w (a4,$003c) == $00001594 [0000],d3
00004710 382c 0054                move.w (a4,$0054) == $000015ac [0000],d4
00004714 246c 0006                movea.l (a4,$0006) == $0000155e [00000000],a2



00004718 4afc                     illegal
0000471a 3035 0000                move.w (a5,d0.W,$00) == $00c014b6 [00c0],d0
0000471e 6000 0088                bra.w #$0088 == $000047a8 (T)
00004722 0807 0001                btst.l #$0001,d7
00004726 675c                     beq.b #$5c == $00004784 (T)
00004728 532c 0033                subq.b #$01,(a4,$0033) == $0000158b [00]
0000472c 667a                     bne.b #$7a == $000047a8 (F)
0000472e 206c 002c                movea.l (a4,$002c) == $00001584 [00000000],a0
00004732 1018                     move.b (a0)+ [23],d0
00004734 532c 0031                subq.b #$01,(a4,$0031) == $00001589 [00]
>d
00004738 660a                     bne.b #$0a == $00004744 (F)
0000473a 206c 0028                movea.l (a4,$0028) == $00001580 [00000000],a0
0000473e 196c 0030 0031           move.b (a4,$0030) == $00001588 [00],(a4,$0031) == $00001589 [00]
00004744 2948 002c                move.l a0,(a4,$002c) == $00001584 [00000000]
00004748 196c 0032 0033           move.b (a4,$0032) == $0000158a [00],(a4,$0033) == $0000158b [00]
0000474e d02c 0050                add.b (a4,$0050) == $000015a8 [00],d0
00004752 4880                     ext.w d0
00004754 906c 003c                sub.w (a4,$003c) == $00001594 [0000],d0
00004758 d040                     add.w d0,d0
0000475a b07c ffd0                cmp.w #$ffd0,d0
>d
0000475e 6d06                     blt.b #$06 == $00004766 (F)
00004760 b07c 002c                cmp.w #$002c,d0
00004764 6f16                     ble.b #$16 == $0000477c (T)
00004766 122c 004f                move.b (a4,$004f) == $000015a7 [00],d1
0000476a 142c 0050                move.b (a4,$0050) == $000015a8 [00],d2
0000476e 362c 003c                move.w (a4,$003c) == $00001594 [0000],d3
00004772 382c 0054                move.w (a4,$0054) == $000015ac [0000],d4
00004776 246c 0006                movea.l (a4,$0006) == $0000155e [00000000],a2
0000477a 4afc                     illegal
0000477c 3035 0000                move.w (a5,d0.W,$00) == $00c014b6 [00c0],d0
>d
00004780 6000 0026                bra.w #$0026 == $000047a8 (T)
00004784 0807 0002                btst.l #$0002,d7
00004788 671e                     beq.b #$1e == $000047a8 (T)
0000478a 532c 0037                subq.b #$01,(a4,$0037) == $0000158f [00]
0000478e 6418                     bcc.b #$18 == $000047a8 (T)
00004790 522c 0037                addq.b #$01,(a4,$0037) == $0000158f [00]
00004794 532c 0039                subq.b #$01,(a4,$0039) == $00001591 [00]
00004798 660a                     bne.b #$0a == $000047a4 (F)
0000479a 446c 003a                neg.w (a4,$003a) == $00001592 [0000]
0000479e 196c 0038 0039           move.b (a4,$0038) == $00001590 [00],(a4,$0039) == $00001591 [00]
>d
000047a4 d06c 003a                add.w (a4,$003a) == $00001592 [0000],d0
000047a8 3940 004a                move.w d0,(a4,$004a) == $000015a2 [0000]
000047ac 0807 0004                btst.l #$0004,d7
000047b0 6700 009e                beq.w #$009e == $00004850 (T)
000047b4 536c 001e                subq.w #$01,(a4,$001e) == $00001576 [0000]
000047b8 6600 0080                bne.w #$0080 == $0000483a (F)
000047bc 206c 0018                movea.l (a4,$0018) == $00001570 [00000000],a0
000047c0 7000                     moveq #$00,d0
000047c2 1018                     move.b (a0)+ [23],d0
000047c4 6742                     beq.b #$42 == $00004808 (T)



000047c6 6b1a                     bmi.b #$1a == $000047e2 (F)
000047c8 3940 001e                move.w d0,(a4,$001e) == $00001576 [0000]
000047cc 197c 0001 001c           move.b #$01,(a4,$001c) == $00001574 [00]
000047d2 197c 0001 001d           move.b #$01,(a4,$001d) == $00001575 [00]
000047d8 1958 0020                move.b (a0)+ [23],(a4,$0020) == $00001578 [00]
000047dc 2948 0018                move.l a0,(a4,$0018) == $00001570 [00000000]
000047e0 6058                     bra.b #$58 == $0000483a (T)
000047e2 4400                     neg.b d0
000047e4 3940 001e                move.w d0,(a4,$001e) == $00001576 [0000]
000047e8 197c 0001 0020           move.b #$01,(a4,$0020) == $00001578 [00]
>d
000047ee 1018                     move.b (a0)+ [23],d0
000047f0 6a06                     bpl.b #$06 == $000047f8 (T)
000047f2 4400                     neg.b d0
000047f4 442c 0020                neg.b (a4,$0020) == $00001578 [00]
000047f8 1940 001c                move.b d0,(a4,$001c) == $00001574 [00]
000047fc 197c 0001 001d           move.b #$01,(a4,$001d) == $00001575 [00]
00004802 2948 0018                move.l a0,(a4,$0018) == $00001570 [00000000]
00004806 6032                     bra.b #$32 == $0000483a (T)
00004808 1010                     move.b (a0) [23],d0
0000480a 670a                     beq.b #$0a == $00004816 (T)
>d
0000480c 6a02                     bpl.b #$02 == $00004810 (T)
0000480e 4400                     neg.b d0
00004810 906c 0052                sub.w (a4,$0052) == $000015aa [0000],d0
00004814 6b06                     bmi.b #$06 == $0000481c (F)
00004816 0887 0004                bclr.l #$0004,d7
0000481a 6034                     bra.b #$34 == $00004850 (T)
0000481c 4440                     neg.w d0
0000481e 3940 001e                move.w d0,(a4,$001e) == $00001576 [0000]
00004822 197c 0000 001c           move.b #$00,(a4,$001c) == $00001574 [00]
00004828 197c 0000 001d           move.b #$00,(a4,$001d) == $00001575 [00]
>d
0000482e 197c 0000 0020           move.b #$00,(a4,$0020) == $00001578 [00]
00004834 2948 0018                move.l a0,(a4,$0018) == $00001570 [00000000]
00004838 6016                     bra.b #$16 == $00004850 (T)
0000483a 532c 001d                subq.b #$01,(a4,$001d) == $00001575 [00]
0000483e 6610                     bne.b #$10 == $00004850 (F)
00004840 196c 001c 001d           move.b (a4,$001c) == $00001574 [00],(a4,$001d) == $00001575 [00]
00004846 102c 0020                move.b (a4,$0020) == $00001578 [00],d0
0000484a 4880                     ext.w d0
0000484c d16c 004c                add.w d0,(a4,$004c) == $000015a4 [0000]
00004850 4e75                     rts  == $00fc072a
>d
00004852 3038 417c                move.w $417c [0000],d0
00004856 676e                     beq.b #$6e == $000048c6 (T)
00004858 3d40 0096                move.w d0,(a6,$0096) == $00c03b3a [0100]
0000485c 3200                     move.w d0,d1
0000485e ef49                     lsl.w #$07,d1
00004860 3d41 009c                move.w d1,(a6,$009c) == $00c03b40 [0000]
00004864 7400                     moveq #$00,d2
00004866 7601                     moveq #$01,d3
00004868 0800 0000                btst.l #$0000,d0
0000486c 6708                     beq.b #$08 == $00004876 (T)



0000486e 3d43 00a6                move.w d3,(a6,$00a6) == $00c03b4a [0000]
00004872 3d42 00aa                move.w d2,(a6,$00aa) == $00c03b4e [0000]
00004876 0800 0001                btst.l #$0001,d0
0000487a 6708                     beq.b #$08 == $00004884 (T)
0000487c 3d43 00b6                move.w d3,(a6,$00b6) == $00c03b5a [ff3e]
00004880 3d42 00ba                move.w d2,(a6,$00ba) == $00c03b5e [00fd]
00004884 0800 0002                btst.l #$0002,d0
00004888 6708                     beq.b #$08 == $00004892 (T)
0000488a 3d43 00c6                move.w d3,(a6,$00c6) == $00c03b6a [00fd]
0000488e 3d42 00ca                move.w d2,(a6,$00ca) == $00c03b6e [4ef9]
>d
00004892 0800 0003                btst.l #$0003,d0
00004896 6708                     beq.b #$08 == $000048a0 (T)
00004898 3d43 00d6                move.w d3,(a6,$00d6) == $00c03b7a [4ef9]
0000489c 3d42 00da                move.w d2,(a6,$00da) == $00c03b7e [fedc]
000048a0 342e 001e                move.w (a6,$001e) == $00c03ac2 [0000],d2
000048a4 c441                     and.w d1,d2
000048a6 b441                     cmp.w d1,d2
000048a8 66f6                     bne.b #$f6 == $000048a0 (F)
000048aa 7402                     moveq #$02,d2
000048ac 362e 0006                move.w (a6,$0006) == $00c03aaa [39c8],d3
>d
000048b0 0243 ff00                and.w #$ff00,d3
000048b4 382e 0006                move.w (a6,$0006) == $00c03aaa [39c8],d4
000048b8 0244 ff00                and.w #$ff00,d4
000048bc b644                     cmp.w d4,d3
000048be 67f4                     beq.b #$f4 == $000048b4 (T)
000048c0 3604                     move.w d4,d3
000048c2 51ca fff0                dbf .w d2,#$fff0 == $000048b4 (F)
000048c6 3238 401c                move.w $401c [ffff],d1
000048ca 3438 401e                move.w $401e [ffff],d2
000048ce 41f8 4024                lea.l $4024,a0
>d
000048d2 3601                     move.w d1,d3
000048d4 0810 0006                btst.b #$0006,(a0) [23]
000048d8 6702                     beq.b #$02 == $000048dc (T)
000048da 3602                     move.w d2,d3
000048dc c668 004c                and.w (a0,$004c) == $00fe9762 [2269],d3
000048e0 3d43 00a8                move.w d3,(a6,$00a8) == $00c03b4c [0000]
000048e4 3d68 004a 00a6           move.w (a0,$004a) == $00fe9760 [2051],(a6,$00a6) == $00c03b4a [0000]
000048ea 0800 0000                btst.l #$0000,d0
000048ee 670e                     beq.b #$0e == $000048fe (T)
000048f0 3d68 0042 00a4           move.w (a0,$0042) == $00fe9758 [2040],(a6,$00a4) == $00c03b48 [0000]
>d
000048f6 2d68 003e 00a0           move.l (a0,$003e) == $00fe9754 [23400004],(a6,$00a0) == $00c03b44 [00c03b06]
000048fc 600c                     bra.b #$0c == $0000490a (T)
000048fe 3d68 0048 00a4           move.w (a0,$0048) == $00fe975e [2209],(a6,$00a4) == $00c03b48 [0000]
00004904 2d68 0044 00a0           move.l (a0,$0044) == $00fe975a [20894e75],(a6,$00a0) == $00c03b44 [00c03b06]
0000490a 41f8 407a                lea.l $407a,a0
0000490e 3601                     move.w d1,d3
00004910 0810 0006                btst.b #$0006,(a0) [23]
00004914 6702                     beq.b #$02 == $00004918 (T)
00004916 3602                     move.w d2,d3
00004918 c668 004c                and.w (a0,$004c) == $00fe9762 [2269],d3



0000491c 3d43 00b8                move.w d3,(a6,$00b8) == $00c03b5c [4ef9]
00004920 3d68 004a 00b6           move.w (a0,$004a) == $00fe9760 [2051],(a6,$00b6) == $00c03b5a [ff3e]
00004926 0800 0001                btst.l #$0001,d0
0000492a 670e                     beq.b #$0e == $0000493a (T)
0000492c 3d68 0042 00b4           move.w (a0,$0042) == $00fe9758 [2040],(a6,$00b4) == $00c03b58 [00fd]
00004932 2d68 003e 00b0           move.l (a0,$003e) == $00fe9754 [23400004],(a6,$00b0) == $00c03b54 [fc6a4ef9]
00004938 600c                     bra.b #$0c == $00004946 (T)
0000493a 3d68 0048 00b4           move.w (a0,$0048) == $00fe975e [2209],(a6,$00b4) == $00c03b58 [00fd]
00004940 2d68 0044 00b0           move.l (a0,$0044) == $00fe975a [20894e75],(a6,$00b0) == $00c03b54 [fc6a4ef9]
00004946 41f8 40d0                lea.l $40d0,a0
>d
0000494a 3601                     move.w d1,d3
0000494c 0810 0006                btst.b #$0006,(a0) [23]
00004950 6702                     beq.b #$02 == $00004954 (T)
00004952 3602                     move.w d2,d3
00004954 c668 004c                and.w (a0,$004c) == $00fe9762 [2269],d3
00004958 3d43 00c8                move.w d3,(a6,$00c8) == $00c03b6c [ff14]
0000495c 3d68 004a 00c6           move.w (a0,$004a) == $00fe9760 [2051],(a6,$00c6) == $00c03b6a [00fd]
00004962 0800 0002                btst.l #$0002,d0
00004966 670e                     beq.b #$0e == $00004976 (T)
00004968 3d68 0042 00c4           move.w (a0,$0042) == $00fe9758 [2040],(a6,$00c4) == $00c03b68 [4ef9]
>d
0000496e 2d68 003e 00c0           move.l (a0,$003e) == $00fe9754 [23400004],(a6,$00c0) == $00c03b64 [00fdff26]
00004974 600c                     bra.b #$0c == $00004982 (T)
00004976 3d68 0048 00c4           move.w (a0,$0048) == $00fe975e [2209],(a6,$00c4) == $00c03b68 [4ef9]
0000497c 2d68 0044 00c0           move.l (a0,$0044) == $00fe975a [20894e75],(a6,$00c0) == $00c03b64 [00fdff26]
00004982 41f8 4126                lea.l $4126,a0
00004986 3601                     move.w d1,d3
00004988 0810 0006                btst.b #$0006,(a0) [23]
0000498c 6702                     beq.b #$02 == $00004990 (T)
0000498e 3602                     move.w d2,d3
00004990 c668 004c                and.w (a0,$004c) == $00fe9762 [2269],d3
>d
00004994 3d43 00d8                move.w d3,(a6,$00d8) == $00c03b7c [00fd]
00004998 3d68 004a 00d6           move.w (a0,$004a) == $00fe9760 [2051],(a6,$00d6) == $00c03b7a [4ef9]
0000499e 0800 0003                btst.l #$0003,d0
000049a2 670e                     beq.b #$0e == $000049b2 (T)
000049a4 3d68 0042 00d4           move.w (a0,$0042) == $00fe9758 [2040],(a6,$00d4) == $00c03b78 [feee]
000049aa 2d68 003e 00d0           move.l (a0,$003e) == $00fe9754 [23400004],(a6,$00d0) == $00c03b74 [4ef900fd]
000049b0 600c                     bra.b #$0c == $000049be (T)
000049b2 3d68 0048 00d4           move.w (a0,$0048) == $00fe975e [2209],(a6,$00d4) == $00c03b78 [feee]
000049b8 2d68 0044 00d0           move.l (a0,$0044) == $00fe975a [20894e75],(a6,$00d0) == $00c03b74 [4ef900fd]
000049be 0040 8000                or.w #$8000,d0
>d
000049c2 3d40 0096                move.w d0,(a6,$0096) == $00c03b3a [0100]
000049c6 4278 417c                clr.w $417c [0000]
000049ca 4e75                     rts  == $00fc072a



                    ; IN: a0
                    ; IN: a1
                    ;
L000049cc           move.l  (a0)+,d0                    ; d0 = source long word
L000049ce           beq.b   L000049ea                   ; if d0 == 0 then exit
L000049d0           move.w  (a0)+,(a1)                  ; copy d0 to destination
L000049d2           move.w  (a0)+,(a1,$000e)            ; copy d0 to destination + 14
L000049d6           move.l  a0,-(a7)                    ; save a0 - incremented ptr to stack

                                                        ; d0 is offset to data within the structure
L000049d8           lea.l   (a0,d0.l,$f8),a0            ; a0 = new data ptr to data inside struct
L000049dc           move.l  (a0,$0004),d0               ; d0 = 4(a0)
L000049e0           addq.l  #$08,d0
L000049e2           bsr.w   L000049ec
L000049e6           movea.l (a7)+,a0
L000049e8           bra.b   L000049cc)
L000049ea           rts     





000049ec 2f09                     move.l a1,-(a7) [00fe86ee]
000049ee 6100 0040                bsr.w #$0040 == $00004a30
000049f2 225f                     movea.l (a7)+ [00fc072a],a1
000049f4 5489                     addaq.l #$02,a1
000049f6 2079 0000 4b3e           movea.l $00004b3e [00017f66],a0
>d
000049fc 2018                     move.l (a0)+ [236b0126],d0
000049fe 0880 0000                bclr.l #$0000,d0
00004a02 2218                     move.l (a0)+ [236b0126],d1
00004a04 0881 0000                bclr.l #$0000,d1
00004a08 2079 0000 4b64           movea.l $00004b64 [00017fba],a0
00004a0e 22c8                     move.l a0,(a1)+ [00c0152a]
00004a10 d1c0                     adda.l d0,a0
00004a12 d081                     add.l d1,d0
00004a14 e288                     lsr.l #$01,d0
00004a16 32c0                     move.w d0,(a1)+ [00c0]
>d
00004a18 4a81                     tst.l d1
00004a1a 6608                     bne.b #$08 == $00004a24 (F)
00004a1c 41f9 0000 4d3a           lea.l $00004d3a,a0
00004a22 7202                     moveq #$02,d1
00004a24 22c8                     move.l a0,(a1)+ [00c0152a]
00004a26 e289                     lsr.l #$01,d1
00004a28 32c1                     move.w d1,(a1)+ [00c0]
00004a2a 5489                     addaq.l #$02,a1
00004a2c 4e75                     rts  == $00fc072a
00004a2e 0000 4278                or.b #$78,d0
>d
00004a32 4a2e 48e7                tst.b (a6,$48e7) == $00c0838b [00]
00004a36 8080                     or.l d0,d0
00004a38 6000 0002                bra.w #$0002 == $00004a3c (T)
00004a3c 4a80                     tst.l d0
00004a3e 670a                     beq.b #$0a == $00004a4a (T)
00004a40 2218                     move.l (a0)+ [236b0126],d1
00004a42 5980                     subq.l #$04,d0
00004a44 6100 000a                bsr.w #$000a == $00004a50
00004a48 60f2                     bra.b #$f2 == $00004a3c (T)
00004a4a 4cdf 0101                movem.l (a7)+,d0/a0
>d
00004a4e 4e75                     rts  == $00fc072a
00004a50 b2bc 464f 524d           cmp.l #$464f524d,d1
00004a56 6700 0054                beq.w #$0054 == $00004aac (T)
00004a5a b2bc 4341 5420           cmp.l #$43415420,d1
00004a60 6700 000c                beq.w #$000c == $00004a6e (T)
00004a64 31fc 0001 4a2e           move.w #$0001,$4a2e [0000]
00004a6a 4280                     clr.l d0
00004a6c 4e75                     rts  == $00fc072a
00004a6e 48e7 8080                movem.l d0/a0,-(a7)
00004a72 2018                     move.l (a0)+ [236b0126],d0

00004a74 2200                     move.l d0,d1
00004a76 0801 0000                btst.l #$0000,d1
00004a7a 6702                     beq.b #$02 == $00004a7e (T)
00004a7c 5281                     addq.l #$01,d1
00004a7e 5881                     addq.l #$04,d1
00004a80 d3af 0004                add.l d1,(a7,$0004) == $00c014aa [00c00276]
00004a84 9397                     sub.l d1,(a7) [00fc072a]
00004a86 5890                     addq.l #$04,(a0) [236b0126]
00004a88 5980                     subq.l #$04,d0
00004a8a 60b0                     bra.b #$b0 == $00004a3c (T)
>d
00004a8c 48e7 8080                movem.l d0/a0,-(a7)
00004a90 2018                     move.l (a0)+ [236b0126],d0
00004a92 2200                     move.l d0,d1
00004a94 0801 0000                btst.l #$0000,d1
00004a98 6702                     beq.b #$02 == $00004a9c (T)
00004a9a 5281                     addq.l #$01,d1
00004a9c 5881                     addq.l #$04,d1
00004a9e d3af 0004                add.l d1,(a7,$0004) == $00c014aa [00c00276]
00004aa2 9397                     sub.l d1,(a7) [00fc072a]
00004aa4 4e71                     nop
>d
00004aa6 4cdf 0101                movem.l (a7)+,d0/a0
00004aaa 4e75                     rts  == $00fc072a
00004aac 48e7 8080                movem.l d0/a0,-(a7)
00004ab0 2018                     move.l (a0)+ [236b0126],d0
00004ab2 2200                     move.l d0,d1
00004ab4 0801 0000                btst.l #$0000,d1
00004ab8 6702                     beq.b #$02 == $00004abc (T)
00004aba 5281                     addq.l #$01,d1
00004abc 5881                     addq.l #$04,d1
00004abe d3af 0004                add.l d1,(a7,$0004) == $00c014aa [00c00276]
>d
00004ac2 9397                     sub.l d1,(a7) [00fc072a]
00004ac4 2218                     move.l (a0)+ [236b0126],d1
00004ac6 5980                     subq.l #$04,d0
00004ac8 b2bc 3853 5658           cmp.l #$38535658,d1
00004ace 6700 000e                beq.w #$000e == $00004ade (T)
00004ad2 31fc 0002 4a2e           move.w #$0002,$4a2e [0000]
00004ad8 4cdf 0101                movem.l (a7)+,d0/a0
00004adc 4e75                     rts  == $00fc072a
00004ade 4a80                     tst.l d0
00004ae0 670a                     beq.b #$0a == $00004aec (T)
>d
00004ae2 2218                     move.l (a0)+ [236b0126],d1
00004ae4 5980                     subq.l #$04,d0
00004ae6 6100 000a                bsr.w #$000a == $00004af2
00004aea 60f2                     bra.b #$f2 == $00004ade (T)
00004aec 4cdf 0101                movem.l (a7)+,d0/a0
00004af0 4e75                     rts  == $00fc072a
00004af2 b2bc 464f 524d           cmp.l #$464f524d,d1
00004af8 67b2                     beq.b #$b2 == $00004aac (T)
00004afa b2bc 4c49 5354           cmp.l #$4c495354,d1
00004b00 678a                     beq.b #$8a == $00004a8c (T)


00004b02 b2bc 4341 5420           cmp.l #$43415420,d1
00004b08 6700 ff64                beq.w #$ff64 == $00004a6e (T)
00004b0c b2bc 5648 4452           cmp.l #$56484452,d1
00004b12 6700 002e                beq.w #$002e == $00004b42 (T)
00004b16 b2bc 424f 4459           cmp.l #$424f4459,d1
00004b1c 6700 004a                beq.w #$004a == $00004b68 (T)
00004b20 48e7 8080                movem.l d0/a0,-(a7)
00004b24 2018                     move.l (a0)+ [236b0126],d0
00004b26 2200                     move.l d0,d1
00004b28 0801 0000                btst.l #$0000,d1
>d
00004b2c 6702                     beq.b #$02 == $00004b30 (T)
00004b2e 5281                     addq.l #$01,d1
00004b30 5881                     addq.l #$04,d1
00004b32 d3af 0004                add.l d1,(a7,$0004) == $00c014aa [00c00276]
00004b36 9397                     sub.l d1,(a7) [00fc072a]
00004b38 4cdf 0101                movem.l (a7)+,d0/a0
00004b3c 4e75                     rts  == $00fc072a
00004b3e 0001 7f66                or.b #$66,d1
00004b42 48e7 8080                movem.l d0/a0,-(a7)
00004b46 2018                     move.l (a0)+ [236b0126],d0
>d
00004b48 2200                     move.l d0,d1
00004b4a 0801 0000                btst.l #$0000,d1
00004b4e 6702                     beq.b #$02 == $00004b52 (T)
00004b50 5281                     addq.l #$01,d1
00004b52 5881                     addq.l #$04,d1
00004b54 d3af 0004                add.l d1,(a7,$0004) == $00c014aa [00c00276]
00004b58 9397                     sub.l d1,(a7) [00fc072a]
00004b5a 21c8 4b3e                move.l a0,$4b3e [00017f66]
00004b5e 4cdf 0101                movem.l (a7)+,d0/a0
00004b62 4e75                     rts  == $00fc072a
>d
00004b64 0001 7fba                or.b #$ba,d1
00004b68 48e7 8080                movem.l d0/a0,-(a7)
00004b6c 2018                     move.l (a0)+ [236b0126],d0
00004b6e 2200                     move.l d0,d1
00004b70 0801 0000                btst.l #$0000,d1
00004b74 6702                     beq.b #$02 == $00004b78 (T)
00004b76 5281                     addq.l #$01,d1
00004b78 5881                     addq.l #$04,d1
00004b7a d3af 0004                add.l d1,(a7,$0004) == $00c014aa [00c00276]
00004b7e 9397                     sub.l d1,(a7) [00fc072a]
>d
00004b80 21c8 4b64                move.l a0,$4b64 [00017fba]
00004b84 4cdf 0101                movem.l (a7)+,d0/a0
00004b88 4e75                     rts  == $00fc072a
00004b8a 06fe                     illegal
00004b8c 0699 063b 05e1           add.l #$063b05e1,(a1)+ [00c0152a]
00004b92 058d 053d                movep.w d2,(a5,$053d) == $00c019f3
00004b96 04f2 04ab 0467           [ cmp2.l (a2,d0.W[*4],$67) == $00000068 (68020+),d0 ]
00004b98 04ab 0467 0428 03ec      sub.l #$04670428,(a3,$03ec) == $00fe8ada [416b416d]
00004ba0 03b4 037f                bclr.b d1,(a4,d0.W[*2],$7f) == $000015d7 (68020+) [00]
00004ba4 034d 031d                movep.l (a5,$031d) == $00c017d3,d1

00004ba8 02f1 02c6 029e           [ cmp2.w (a1,d0.W[*2],$9e) == $00c01480 (68020+),d0 ]
00004baa 02c6                     illegal
00004bac 029e 0279 0255           and.l #$02790255,(a6)+ [00c003d8]
00004bb2 0234 0214 01f6           and.b #$14,(a4,d0.W,$f6) == $0000154e (68020+) [00]
00004bb8 01da                     bset.b d0,(a2)+ [00]
00004bba 01bf                     illegal
00004bbc 01a6                     bclr.b d0,-(a6) [c2]
00004bbe 018f 0178                movep.w d0,(a7,$0178) == $00c0161e
00004bc2 0163                     bchg.b d0,-(a3) [d0]
00004bc4 014f 013c                movep.l (a7,$013c) == $00c015e2,d0
>d
00004bc8 012b 011a                btst.b d0,(a3,$011a) == $00fe8808 [00]
00004bcc 010a 00fb                movep.w (a2,$00fb) == $000000fc,d0
00004bd0 00ed 00e0 00d3           [ cmp2.b (a5,$00d3) == $00c01589,d0 ]
00004bd2 00e0                     illegal
00004bd4 00d3 00c7                [ cmp2.b (a3),d0 ]
00004bd6 00c7                     illegal
00004bd8 00bc                     illegal
00004bda 00b2 00a8 009e 0095      or.l #$00a8009e,(a2,d0.W,$95) == $ffffff96 [4e710000]
00004be2 008d                     illegal
00004be4 0085 007e 0077           or.l #$007e0077,d5
>d
00004bea 0021 0000                or.b #$00,-(a1) [42]
00004bee 4d3c 000b 0000           [ chk.l #$000b0000,d6 ]
00004bf0 000b                     illegal
00004bf2 0000 4d3c                or.b #$3c,d0
00004bf6 000b                     illegal
00004bf8 0000 0018                or.b #$18,d0
00004bfc 0000 4e1e                or.b #$1e,d0
00004c00 1c5c                     illegal
00004c02 0000 4d3a                or.b #$3a,d0
00004c06 0001 0000                or.b #$00,d1
>d
00004c0a 0018 0000                or.b #$00,(a0)+ [23]
00004c0e 873e                     illegal
00004c10 1703                     move.b d3,-(a3) [d0]
00004c12 0000 4d3a                or.b #$3a,d0
00004c16 0001 0000                or.b #$00,d1
00004c1a 000c                     illegal
00004c1c 0000 b5ac                or.b #$ac,d0
00004c20 0a02 0000                eor.b #$00,d2
00004c24 4d3a 0001                [ chk.l (pc,$0001) == $00004c27,d6 ]
00004c26 0001 ffff                or.b #$ff,d1
>d
00004c2a 0018 0000                or.b #$00,(a0)+ [23]
00004c2e ca18                     and.b (a0)+ [23],d5
00004c30 0a28 0000 4d3a           eor.b #$00,(a0,$4d3a) == $00fee450 [00]
00004c36 0001 ffff                or.b #$ff,d1
00004c3a 0030 0000 ded0           or.b #$00,(a0,a5.L[*8],$d0) == $01beab9c (68020+)
00004c40 012b 0000                btst.b d0,(a3,$0000) == $00fe86ee [4e]
00004c44 4d3a 0001                [ chk.l (pc,$0001) == $00004c47,d6 ]
00004c46 0001 ffff                or.b #$ff,d1
00004c4a 0032 0000 e18e           or.b #$00,(a2,a6.W,$8e) == $00003a33 (68020+) [aa]
00004c50 05cf 0000                movep.l d2,(a7,$0000) == $00c014a6

00004c54 4d3a 0001                [ chk.l (pc,$0001) == $00004c57,d6 ]
00004c56 0001 ffff                or.b #$ff,d1
00004c5a 0011 0000                or.b #$00,(a1) [00]
00004c5e ed94                     roxl.l #$06,d4
00004c60 06b8 0000 4d3a 0001      add.l #$00004d3a,$0001 [00000000]
00004c68 0000 0038                or.b #$38,d0
00004c6c 0000 fb6c                or.b #$6c,d0
00004c70 0666 0000                add.w #$0000,-(a6) [9bc2]
00004c74 4d3a 0001                [ chk.l (pc,$0001) == $00004c77,d6 ]
00004c76 0001 0000                or.b #$00,d1
>d
00004c7a 0014 0001                or.b #$01,(a4) [00]
00004c7e 08a0 05e1                bclr.b #$05e1,-(a0) [75]
00004c82 0000 4d3a                or.b #$3a,d0
00004c86 0001 0000                or.b #$00,d1
00004c8a 003e                     illegal
00004c8c 0001 14ca                or.b #$ca,d1
00004c90 11d6 0001                move.b (a6) [00],$0001 [00]
00004c94 2de0                     illegal
00004c96 054b 0000                movep.l (a3,$0000) == $00fe86ee,d2
00004c9a 0018 0001                or.b #$01,(a0)+ [23]
>d
00004c9e 38de                     move.w (a6)+ [00c0],(a4)+ [0000]
00004ca0 233a 0000                move.l (pc,$0000) == $00004ca2 [00004d3a],-(a1) [00009942]
00004ca4 4d3a 0001                [ chk.l (pc,$0001) == $00004ca7,d6 ]
00004ca6 0001 0000                or.b #$00,d1
00004caa 0018 0001                or.b #$01,(a0)+ [23]
00004cae 7fba                     illegal
00004cb0 1ce6                     move.b -(a6) [c2],(a6)+ [00]
00004cb2 0000 4d3a                or.b #$3a,d0
00004cb6 0001 0000                or.b #$00,d1
00004cba 0000 0000                or.b #$00,d0
>d
00004cbe 0000 0000                or.b #$00,d0
00004cc2 0000 0000                or.b #$00,d0
00004cc6 0000 0000                or.b #$00,d0
00004cca 0000 0000                or.b #$00,d0
00004cce 0000 0000                or.b #$00,d0
00004cd2 0000 0000                or.b #$00,d0
00004cd6 0000 0000                or.b #$00,d0
00004cda 0000 0000                or.b #$00,d0
00004cde 0000 0000                or.b #$00,d0
00004ce2 0000 0000                or.b #$00,d0
>d
00004ce6 0000 0000                or.b #$00,d0
00004cea 0000 0000                or.b #$00,d0
00004cee 0000 0000                or.b #$00,d0
00004cf2 0000 0000                or.b #$00,d0
00004cf6 0000 0000                or.b #$00,d0
00004cfa 0000 0000                or.b #$00,d0
00004cfe 0000 0000                or.b #$00,d0
00004d02 0000 0000                or.b #$00,d0
00004d06 0000 0000                or.b #$00,d0
00004d0a 0000 0000                or.b #$00,d0

00004d0e 0000 0000                or.b #$00,d0
00004d12 0000 0000                or.b #$00,d0
00004d16 0000 0000                or.b #$00,d0
00004d1a 0000 0000                or.b #$00,d0
00004d1e 0000 0000                or.b #$00,d0
00004d22 0000 0000                or.b #$00,d0
00004d26 0000 0000                or.b #$00,d0
00004d2a 0000 0000                or.b #$00,d0
00004d2e 0000 0000                or.b #$00,d0
00004d32 0000 0000                or.b #$00,d0
>d
00004d36 0000 0000                or.b #$00,d0
00004d3a 0000 0074                or.b #$74,d0
00004d3e 60dc                     bra.b #$dc == $00004d1c (T)
00004d40 82bb 457e                or.l (pc,d4.W[*4],$7e=$00004dc0) == $00004dc0 (68020+) [56585648],d1
00004d44 24a0                     move.l -(a0) [40044e75],(a2) [00000000]
00004d46 8c00                     or.b d0,d6
00004d48 7460                     moveq #$60,d2
00004d4a dc82                     add.l d2,d6
00004d4c bb45                     eor.w d5,d5
00004d4e 7e24                     moveq #$24,d7
>d
00004d50 a08c                     illegal
00004d52 0000 0064                or.b #$64,d0
00004d56 0018 0000                or.b #$00,(a0)+ [23]
00004d5a 0000 397c                or.b #$7c,d0
00004d5e 0018 0000                or.b #$00,(a0)+ [23]
00004d62 0000 67e2                or.b #$e2,d0
00004d66 000c                     illegal
00004d68 ffff                     illegal
00004d6a 0000 7c46                or.b #$46,d0
00004d6e 0018 ffff                or.b #$ff,(a0)+ [23]
>d
00004d72 0000 90f6                or.b #$f6,d0
00004d76 0030 ffff 0000           or.b #$ff,(a0,d0.W,$00) == $00fe9716 [23]
00004d7c 93ac 0032                sub.l d1,(a4,$0032) == $0000158a [00000000]
00004d80 ffff                     illegal
00004d82 0000 9faa                or.b #$aa,d0
00004d86 0011 0000                or.b #$00,(a1) [00]
00004d8a 0000 ad7a                or.b #$7a,d0
00004d8e 0038 0000 0000           or.b #$00,$0000 [00]
00004d94 baa6                     cmp.l -(a6) [00fe9bc2],d5
00004d96 0014 0000                or.b #$00,(a4) [00]
>d
00004d9a 0000 c6c8                or.b #$c8,d0
00004d9e 003e                     illegal
00004da0 0000 0000                or.b #$00,d0
00004da4 ead4 0018                [ bfchg (a4) {0:24} ]
00004da6 0018 0000                or.b #$00,(a0)+ [23]
00004daa 0001 31a8                or.b #$a8,d1
00004dae 0018 0000                or.b #$00,(a0)+ [23]
00004db2 0000 0000                or.b #$00,d0
00004db6 464f                     illegal
00004db8 524d                     addaq.w #$01,a5

00004dba 0000 3918                or.b #$18,d0
00004dbe 3853                     movea.w (a3) [4e75],a4
00004dc0 5658                     addq.w #$03,(a0)+ [236b]
00004dc2 5648                     addaq.w #$03,a0
00004dc4 4452                     neg.w (a2) [0000]
00004dc6 0000 0014                or.b #$14,d0
00004dca 0000 38b8                or.b #$b8,d0
00004dce 0000 0000                or.b #$00,d0
00004dd2 0000 0020                or.b #$20,d0
00004dd6 3d53 0100                move.w (a3) [4e75],(a6,$0100) == $00c03ba4 [4ef9]
>d
00004dda 0001 0000                or.b #$00,d1
00004dde 4e41                     trap #$01
00004de0 4d45                     illegal
00004de2 0000 0014                or.b #$14,d0
00004de6 5748                     subaq.w #$03,a0
00004de8 4154                     illegal
00004dea 5255                     addq.w #$01,(a5) [00c0]
00004dec 0000 0000                or.b #$00,d0
00004df0 0000 0000                or.b #$00,d0
00004df4 0000 0000                or.b #$00,d0
>d
00004df8 0000 414e                or.b #$4e,d0
00004dfc 4e4f                     trap #$0f
00004dfe 0000 0014                or.b #$14,d0
00004e02 4175                     illegal
00004e04 6469                     bcc.b #$69 == $00004e6f (T)
00004e06 6f20                     ble.b #$20 == $00004e28 (T)
00004e08 4d61                     illegal
00004e0a 7374                     illegal
00004e0c 6572                     bcs.b #$72 == $00004e80 (F)
00004e0e 2049                     movea.l a1,a0
>d
00004e10 4900                     [ chk.l d0,d4 ]
00004e12 0000 0000                or.b #$00,d0
00004e16 424f                     illegal
00004e18 4459                     neg.w (a1)+ [00c0]
00004e1a 0000 38b8                or.b #$b8,d0
00004e1e 0000 0001                or.b #$01,d0
00004e22 0202 0100                and.b #$00,d2
00004e26 0103                     btst.l d0,d3
00004e28 0200 0002                and.b #$02,d0
00004e2c 0302                     btst.l d1,d2
>d
00004e2e 00ff                     illegal
00004e30 0000 0100                or.b #$00,d0
00004e34 0000 fffe                or.b #$fe,d0
00004e38 fdfc                     illegal
00004e3a fd00                     illegal
00004e3c 0202 0101                and.b #$01,d2
00004e40 0302                     btst.l d1,d2
00004e42 fffc                     illegal
00004e44 fbfd                     illegal
00004e46 fcfb                     illegal

00004e48 f8f6                     illegal
00004e4a f6f6                     illegal
00004e4c faff                     illegal
00004e4e 0305                     btst.l d1,d5
00004e50 0501                     btst.l d2,d1
00004e52 0003 0a0b                or.b #$0b,d3
00004e56 0c0d                     illegal
00004e58 0e0b                     illegal
00004e5a 0808                     illegal
00004e5c 0a0b                     illegal
>d
00004e5e 0a08                     illegal
00004e60 0806 01fc                btst.l #$01fc,d6
00004e64 f8f5                     illegal
00004e66 eee6                     illegal
00004e68 e3e4                     lsl.w -(a4) [0000]
00004e6a ebf2 f5f6 f7f6           [ bfexts (a2,a7.W[*8],$f6) == $0000149d (68020+) {23:d6},d7 ]
00004e6c f5f6                     illegal
00004e6e f7f6                     illegal
00004e70 f1ee                     illegal
00004e72 f1f4                     illegal
>d
00004e74 f1ec                     illegal
00004e76 e9e9 ebec eced           [ bfextu (a1,-$1313) == $00c001cf {d7:d4},d6 ]
00004e78 ebec eced f5ff           [ bfexts (a4,-$0a01) == $00000b57 {d3:d5},d6 ]
00004e7a eced f5ff 070c           [ bfclr (a5,$070c) == $00c01bc2 {23:d7} ]
00004e7c f5ff                     illegal
00004e7e 070c 0e11                movep.w (a4,$0e11) == $00002369,d3
00004e82 100f                     illegal
00004e84 1115                     move.b (a5) [00],-(a0) [75]
00004e86 1c21                     move.b -(a1) [42],d6
00004e88 2220                     move.l -(a0) [40044e75],d1
>d
00004e8a 1e21                     move.b -(a1) [42],d7
00004e8c 2221                     move.l -(a1) [00009942],d1
00004e8e 1e1a                     move.b (a2)+ [00],d7
00004e90 1713                     move.b (a3) [4e],-(a3) [d0]
00004e92 0b04                     btst.l d5,d4
00004e94 fffd                     illegal
00004e96 f6ec                     illegal
00004e98 e7e7                     rol.w -(a7) [86ee]
00004e9a ebf0 f2f2 eeeb           [ bfexts (a0,a6.L[*8],$eb) == $01bed1a5 (68020+) {11:d2},d7 ]
00004e9c f2f2 eeeb ebed           [ fbgt #$32,#$eeebebed ]
>d
00004e9e eeeb ebed ede8           [ bfset (a3,-$1218) == $00fe74d6 {d7:d5} ]
00004ea0 ebed ede8 e3e1           [ bfexts (a5,-$1c1f) == $00bff897 {d7:d0},d6 ]
00004ea2 ede8 e3e1 e0db           [ bfffo (a0,-$1f25) == $00fe77f1 {15:d1},d6 ]
00004ea4 e3e1                     lsl.w -(a1) [9942]
00004ea6 e0db                     asr.w (a3)+ [4e75]
00004ea8 d9dd                     adda.l (a5)+ [00c00276],a4
00004eaa e4e8 edf6                roxr.w (a0,-$120a) == $00fe850c [0106]
00004eae 040d                     illegal
00004eb0 0d09 0b0f                movep.w (a1,$0b0f) == $00c01ff1,d6
00004eb4 171d                     move.b (a5)+ [00],-(a3) [d0]

00004eb6 2124                     move.l -(a4) [00000000],-(a0) [40044e75]
00004eb8 2524                     move.l -(a4) [00000000],-(a2) [1e001f11]
00004eba 2221                     move.l -(a1) [00009942],d1
00004ebc 2222                     move.l -(a2) [1e001f11],d1
00004ebe 2120                     move.l -(a0) [40044e75],-(a0) [40044e75]
00004ec0 1b15                     move.b (a5) [00],-(a5) [46]
00004ec2 0d06                     btst.l d6,d6
00004ec4 fef6                     illegal
00004ec6 f1f0                     illegal
00004ec8 f2f2 f1f1 f0ed           [ fbgt #$32,#$f1f1f0ed ]
>d
00004eca f1f1                     illegal
00004ecc f0ed                     illegal
00004ece e8e1                     illegal
00004ed0 e0e0                     asr.w -(a0) [4e75]
00004ed2 e2e1                     lsr.w -(a1) [9942]
00004ed4 dfde                     adda.l (a6)+ [00c003d8],a7
00004ed6 dcda                     adda.w (a2)+ [0000],a6
00004ed8 d6d8                     adda.w (a0)+ [236b],a3
00004eda e0eb f3f7                asr.w (a3,-$0c09) == $00fe7ae5 [0067]
00004ede f901                     illegal
>d
00004ee0 0a10 1214                eor.b #$14,(a0) [23]
00004ee4 1920                     move.b -(a0) [75],-(a4) [00]
00004ee6 2626                     move.l -(a6) [00fe9bc2],d3
00004ee8 2425                     move.l -(a5) [00fe8646],d2
00004eea 2727                     move.l -(a7) [00fe86ee],-(a3) [3c0c4ed0]
00004eec 231f                     move.l (a7)+ [00fc072a],-(a1) [00009942]
00004eee 1e1b                     move.b (a3)+ [4e],d7
00004ef0 1409                     illegal
00004ef2 fffb                     illegal
00004ef4 f6f1                     illegal
>d
00004ef6 eff0 f2f2 f3f1           [ bfins d7,(a0,a7.W[*2],$f1) == $00feabad (68020+) {11:d2} ]
00004ef8 f2f2 f3f1 f0ef           [ fbgt #$32,#$f3f1f0ef ]
00004efa f3f1                     illegal
00004efc f0ef                     illegal
00004efe f0ea                     illegal
00004f00 e4df                     roxr.w (a7)+ [00fc]
00004f02 dedf                     adda.w (a7)+ [00fc],a7
00004f04 e0df                     asr.w (a7)+ [00fc]
00004f06 dcdb                     adda.w (a3)+ [4e75],a6
00004f08 e0e8 eff5                asr.w (a0,-$100b) == $00fe870b [ff0f]
>d
00004f0c fc03                     illegal
00004f0e 0609                     illegal
00004f10 0c14 191d                cmp.b #$1d,(a4) [00]
00004f14 1e21                     move.b -(a1) [42],d7
00004f16 282d 2d2d                move.l (a5,$2d2d) == $00c041e3 [ae000000],d4
00004f1a 2c2c 2822                move.l (a4,$2822) == $00003d7a [aaaaaaaa],d6
00004f1e 1a12                     move.b (a2) [00],d5
00004f20 0a04 01fc                eor.b #$fc,d4
00004f24 f8f7                     illegal
00004f26 f9fd                     illegal


00004f28 fffe                     illegal
00004f2a f6ee                     illegal
00004f2c eeef e9dd d7d7           [ bfset (a7,-$2829) == $00bfec7d {d7:29} ]
00004f2e e9dd                     illegal
00004f30 d7d7                     adda.l (a7) [00fc072a],a3
00004f32 d7d7                     adda.l (a7) [00fc072a],a3
00004f34 dce0                     adda.w -(a0) [4e75],a6
00004f36 e4e4                     roxr.w -(a4) [0000]
00004f38 e7ef ff0b                rol.w (a7,-$00f5) == $00c013b1 [0000]
00004f3c 1212                     move.b (a2) [00],d1
>d
00004f3e 1216                     move.b (a6) [00],d1
00004f40 2022                     move.l -(a2) [1e001f11],d0
00004f42 2123                     move.l -(a3) [3c0c4ed0],-(a0) [40044e75]
00004f44 2a2e 2f2e                move.l (a6,$2f2e) == $00c069d2 [00000000],d5
00004f48 2f2a 2520                move.l (a2,$2520) == $00002521 [aaaaaaaa],-(a7) [00fe86ee]
00004f4c 170f                     illegal
00004f4e 0907                     btst.l d4,d7
00004f50 03fe                     illegal
00004f52 ffff                     illegal
00004f54 fefb                     illegal
>d
00004f56 f8f7                     illegal
00004f58 f4f0                     [ cpushp bc,(a0) ]
00004f5a ece6                     illegal
00004f5c e1da                     asl.w (a2)+ [0000]
00004f5e d5d3                     adda.l (a3) [4e756772],a2
00004f60 d3d7                     adda.l (a7) [00fc072a],a1
00004f62 dadd                     adda.w (a5)+ [00c0],a5
00004f64 e0e7                     asr.w -(a7) [86ee]
00004f66 edf1 f1f7 fe07           [ bfffo (a1,a7.L[*8],$07) == $0180298f (68020+) {7:d7},d7 ]
00004f68 f1f7                     illegal
>d
00004f6a fe07                     illegal
00004f6c 1019                     move.b (a1)+ [00],d0
00004f6e 2024                     move.l -(a4) [00000000],d0
00004f70 2829 282a                move.l (a1,$282a) == $00c03d0c [4ef900fd],d4
00004f74 2d2a 2218                move.l (a2,$2218) == $00002219 [aaaaaaaa],-(a6) [00fe9bc2]
00004f78 1514                     move.b (a4) [00],-(a2) [00]
00004f7a 0e0b                     illegal
00004f7c 0907                     btst.l d4,d7
00004f7e 04ff                     illegal
00004f80 fefc                     illegal
>d
00004f82 fbf7                     illegal
00004f84 f2f0 ece4 ddd5           [ fbsf #$30,#$ece4ddd5 ]
00004f86 ece4                     illegal
00004f88 ddd5                     adda.l (a5) [00c00276],a6
00004f8a d4d3                     adda.w (a3) [4e75],a2
00004f8c d1d1                     adda.l (a1) [00c0152a],a0
00004f8e d3d5                     adda.l (a5) [00c00276],a1
00004f90 dbe2                     adda.l -(a2) [1e001f11],a5
00004f92 ebf1 f7fb fe02           [ bfexts (a1,a7.L[*8],$02) == $0180298a (68020+) {31:d3},d7 ]
00004f94 f7fb                     illegal

00004f96 fe02                     illegal
00004f98 080b                     illegal
00004f9a 1015                     move.b (a5) [00],d0
00004f9c 1a1d                     move.b (a5)+ [00],d5
00004f9e 242d 302f                move.l (a5,$302f) == $00c044e5 [e8000000],d2
00004fa2 2c29 2623                move.l (a1,$2623) == $00c03b05 [1800c021],d6
00004fa6 1e19                     move.b (a1)+ [00],d7
00004fa8 110a                     illegal
00004faa 03fc                     illegal
00004fac f7f4                     illegal
>d
00004fae f3f2                     illegal
00004fb0 f0ed                     illegal
00004fb2 ebe6                     illegal
00004fb4 e2dc                     lsr.w (a4)+ [0000]
00004fb6 d7d1                     adda.l (a1) [00c0152a],a3
00004fb8 d1d7                     adda.l (a7) [00fc072a],a0
00004fba d9d5                     adda.l (a5) [00c00276],a4
00004fbc d1d8                     adda.l (a0)+ [236b0126],a0
00004fbe e1e6                     asl.w -(a6) [9bc2]
00004fc0 eaf2 fbfc fb00           [ bfchg (a2,a7.L[*2],$00) == $00c014a7 (68020+) {d7:d4} ]
>d
00004fc2 fbfc                     illegal
00004fc4 fb00                     illegal
00004fc6 090e 131c                movep.w (a6,$131c) == $00c04dc0,d4
00004fca 2327                     move.l -(a7) [00fe86ee],-(a1) [00009942]
00004fcc 292e 3133                move.l (a6,$3133) == $00c06bd7 [00000000],-(a4) [00000000]
00004fd0 312e 2824                move.w (a6,$2824) == $00c062c8 [0000],-(a0) [4e75]
00004fd4 1f17                     move.b (a7) [00],-(a7) [ee]
00004fd6 0f0a 0907                movep.w (a2,$0907) == $00000908,d7
00004fda 00f4 eeed eff1           [ chk2.b (a4,a6.L[*8],$f1) == $00c04fed (68020+),a6 ]
00004fdc eeed eff1 f0f0           [ bfset (a5,-$0f10) == $00c005a6 {d7:d1} ]
>d
00004fde eff1 f0f0 f1ee           [ bfins d7,(a1,a7.W,$ee) == $00c02976 (68020+) {3:d0} ]
00004fe0 f0f0                     illegal
00004fe2 f1ee                     illegal
00004fe4 e2da                     lsr.w (a2)+ [0000]
00004fe6 d7db                     adda.l (a3)+ [4e756772],a3
00004fe8 e0e2                     asr.w -(a2) [1f11]
00004fea e4e7                     roxr.w -(a7) [86ee]
00004fec e7e8 ecf1                rol.w (a0,-$130f) == $00fe8407 [342e]
00004ff0 f4f9                     [ cpusha bc ]
00004ff2 020d                     illegal
>d
00004ff4 161e                     move.b (a6)+ [00],d3
00004ff6 2629 2722                move.l (a1,$2722) == $00c03c04 [4ef900fd],d3
00004ffa 2227                     move.l -(a7) [00fe86ee],d1
00004ffc 2d2c 2620                move.l (a4,$2620) == $00003b78 [aaaaaaaa],-(a6) [00fe9bc2]
00005000 1b16                     move.b (a6) [00],-(a5) [46]
00005002 100c                     illegal
00005004 08ff                     illegal
00005006 fbf8                     illegal
00005008 f7ef                     illegal
0000500a e8e6                     illegal

0000500c ebec e9e8 edec           [ bfexts (a4,-$1214) == $00000344 {d7:d0},d6 ]
0000500e e9e8 edec e7e2           [ bfextu (a0,-$181e) == $00fe7ef8 {d7:d4},d6 ]
00005010 edec e7e2 e1e0           [ bfffo (a4,-$1e20) == $fffff738 {31:d2},d6 ]
00005012 e7e2                     rol.w -(a2) [1f11]
00005014 e1e0                     asl.w -(a0) [4e75]
00005016 deda                     adda.w (a2)+ [0000],a7
00005018 d7d8                     adda.l (a0)+ [236b0126],a3
0000501a d9dd                     adda.l (a5)+ [00c00276],a4
0000501c e4ee fa02                roxr.w (a6,-$05fe) == $00c034a6 [a6a6]
00005020 0b0e 100f                movep.w (a6,$100f) == $00c04ab3,d5
>d
00005024 1014                     move.b (a4) [00],d0
00005026 191d                     move.b (a5)+ [00],-(a4) [00]
00005028 1e1e                     move.b (a6)+ [00],d7
0000502a 1e1c                     move.b (a4)+ [00],d7
0000502c 1a1a                     move.b (a2)+ [00],d5
0000502e 191a                     move.b (a2)+ [00],-(a4) [00]
00005030 1b1b                     move.b (a3)+ [4e],-(a5) [46]
00005032 1a15                     move.b (a5) [00],d5
00005034 0b03                     btst.l d5,d3
00005036 fbf4                     illegal
>d
00005038 eae7                     illegal
0000503a eaec e8e4 e2e2           [ bfchg (a4,-$1d1e) == $fffff83a {d3:d4} ]
0000503c e8e4                     illegal
0000503e e2e2                     lsr.w -(a2) [1f11]
00005040 e2e5                     lsr.w -(a5) [8646]
00005042 eaec ebea ecf1           [ bfchg (a4,-$130f) == $00000249 {d7:d2} ]
00005044 ebea ecf1 f2f3           [ bfexts (a2,-$0d0d) == $fffff2f4 {d3:d1},d6 ]
00005046 ecf1 f2f3 f4f7           [ bfclr (a1,a7.W[*4],$f7) == $00c0297f (68020+) {11:d3} ]
00005048 f2f3 f4f7 fbff           [ fbge #$33,#$f4f7fbff ]
0000504a f4f7                     [ cpushp bc,(a7) ]
>d
0000504c fbff                     illegal
0000504e 060d                     illegal
00005050 1417                     move.b (a7) [00],d2
00005052 191e                     move.b (a6)+ [00],-(a4) [00]
00005054 2528 2a29                move.l (a0,$2a29) == $00fec13f [6a008448],-(a2) [1e001f11]
00005058 2825                     move.l -(a5) [00fe8646],d4
0000505a 211f                     move.l (a7)+ [00fc072a],-(a0) [40044e75]
0000505c 1d1d                     move.b (a5)+ [00],-(a6) [c2]
0000505e 1c1b                     move.b (a3)+ [4e],d6
00005060 130b                     illegal
>d
00005062 05ff                     illegal
00005064 f7f0                     illegal
00005066 ece8 e3e1 e4e9           [ bfclr (a0,-$1b17) == $00fe7bff {15:d1} ]
00005068 e3e1                     lsl.w -(a1) [9942]
0000506a e4e9 e8e5                roxr.w (a1,-$171b) == $00bffdc7
0000506e e8f0 f4f6 f7fc           [ bftst (a0,a7.W[*8],$fc) == $00feabb8 (68020+) {19:d6} ]
00005070 f4f6                     [ cpushp bc,(a6) ]
00005072 f7fc                     illegal
00005074 fdfc                     illegal
00005076 f7f3                     illegal

00005078 f1f4                     illegal
0000507a f9fb                     illegal
0000507c ff08                     illegal
0000507e 131b                     move.b (a3)+ [4e],-(a1) [42]
00005080 1b1a                     move.b (a2)+ [00],-(a5) [46]
00005082 1c25                     move.b -(a5) [46],d6
00005084 2829 2523                move.l (a1,$2523) == $00c03a05 [c03a0800],d4
00005088 2021                     move.l -(a1) [00009942],d0
0000508a 201c                     move.l (a4)+ [00000000],d0
0000508c 1717                     move.b (a7) [00],-(a3) [d0]
>d
0000508e 120e                     illegal
00005090 0807 0302                btst.l #$0302,d7
00005094 00fe                     illegal
00005096 f9f7                     illegal
00005098 faff                     illegal
0000509a 0103                     btst.l d0,d3
0000509c 0402 fbf0                sub.b #$f0,d2
000050a0 e4dc                     roxr.w (a4)+ [0000]
000050a2 dfe4                     adda.l -(a4) [00000000],a7
000050a4 e0da                     asr.w (a2)+ [0000]
>d
000050a6 dfe6                     adda.l -(a6) [00fe9bc2],a7
000050a8 e7e2                     rol.w -(a2) [1f11]
000050aa e5ef fa02                roxl.w (a7,-$05fe) == $00c00ea8 [0000]
000050ae 080a                     illegal
000050b0 0d10                     btst.b d6,(a0) [23]
000050b2 1111                     move.b (a1) [00],-(a0) [75]
000050b4 1114                     move.b (a4) [00],-(a0) [75]
000050b6 161b                     move.b (a3)+ [4e],d3
000050b8 2021                     move.l -(a1) [00009942],d0
000050ba 1d18                     move.b (a0)+ [23],-(a6) [c2]
>d
000050bc 1616                     move.b (a6) [00],d3
000050be 1412                     move.b (a2) [00],d2
000050c0 0f0d 0b02                movep.w (a5,$0b02) == $00c01fb8,d7
000050c4 f8ed                     illegal
000050c6 e2d5                     lsr.w (a5) [00c0]
000050c8 cac9                     illegal
000050ca ced2                     mulu.w (a2) [0000],d7
000050cc d4d7                     adda.w (a7) [00fc],a2
000050ce dadc                     adda.w (a4)+ [0000],a5
000050d0 e1ed f9fb                asl.w (a5,-$0605) == $00c00eb1 [0000]
>d
000050d4 f9f8                     illegal
000050d6 f9fa                     illegal
000050d8 fc01                     illegal
000050da 0404 0406                sub.b #$06,d4
000050de 0c11 1620                cmp.b #$20,(a1) [00]
000050e2 2728 221c                move.l (a0,$221c) == $00feb932 [082a0005],-(a3) [3c0c4ed0]
000050e6 1a19                     move.b (a1)+ [00],d5
000050e8 1610                     move.b (a0) [23],d3
000050ea 0e0d                     illegal
000050ec 0a02 faf5                eor.b #$f5,d2

000050f0 efed ebec eef0           [ bfins d6,(a5,-$1110) == $00c003a6 {d7:d4} ]
000050f2 ebec eef0 f4f7           [ bfexts (a4,-$0b09) == $00000a4f {d3:d0},d6 ]
000050f4 eef0 f4f7 f8f6           [ bfset (a0,a7.L,$f6) == $01beabb2 {19:d7} ]
000050f6 f4f7                     [ cpushp bc,(a7) ]
000050f8 f8f6                     illegal
000050fa f7f8                     illegal
000050fc f4f0                     [ cpushp bc,(a0) ]
000050fe efeb e1d9 d6d6           [ bfins d6,(a3,-$292a) == $00fe5dc4 {7:25} ]
00005100 e1d9                     asl.w (a1)+ [00c0]
00005102 d6d6                     adda.w (a6) [00c0],a3
>d
00005104 dae0                     adda.w -(a0) [4e75],a5
00005106 e8ef f5fd 0811           [ bftst (a7,$0811) == $00c01cb7 {23:d5} ]
00005108 f5fd                     illegal
0000510a 0811 1519                btst.b #$1519,(a1) [00]
0000510e 1c1e                     move.b (a6)+ [00],d6
00005110 1e21                     move.b -(a1) [42],d7
00005112 2220                     move.l -(a0) [40044e75],d1
00005114 1b17                     move.b (a7) [00],-(a5) [46]
00005116 1513                     move.b (a3) [4e],-(a2) [00]
00005118 1213                     move.b (a3) [4e],d1
>d
0000511a 1517                     move.b (a7) [00],-(a2) [00]
0000511c 130c                     illegal
0000511e 0707                     btst.l d3,d7
00005120 0702                     btst.l d3,d2
00005122 f9f5                     illegal
00005124 f4f0                     [ cpushp bc,(a0) ]
00005126 e8e2                     illegal
00005128 e0e1                     asr.w -(a1) [9942]
0000512a e1de                     asl.w (a6)+ [00c0]
0000512c dee0                     adda.w -(a0) [4e75],a7
>d
0000512e e3e6                     lsl.w -(a6) [9bc2]
00005130 e7ea f0f4                rol.w (a2,-$0f0c) == $fffff0f5 [644e]
00005134 f9ff                     illegal
00005136 060c                     illegal
00005138 0e0d                     illegal
0000513a 0b0c 0e14                movep.w (a4,$0e14) == $0000236c,d5
0000513e 1c22                     move.b -(a2) [00],d6
00005140 2523                     move.l -(a3) [3c0c4ed0],-(a2) [1e001f11]
00005142 2121                     move.l -(a1) [00009942],-(a0) [40044e75]
00005144 201e                     move.l (a6)+ [00c003d8],d0
>d
00005146 1910                     move.b (a0) [23],-(a4) [00]
00005148 0703                     btst.l d3,d3
0000514a 0402 fdf7                sub.b #$f7,d2
0000514e f1ea                     illegal
00005150 e2dc                     lsr.w (a4)+ [0000]
00005152 dee3                     adda.w -(a3) [4ed0],a7
00005154 e6e7                     ror.w -(a7) [86ee]
00005156 ebef f3f5 f5f4           [ bfexts (a7,-$0a0c) == $00c00a9a {15:d5},d7 ]
00005158 f3f5                     illegal
0000515a f5f4                     illegal

0000515c f3f0                     illegal
0000515e eeee eded f0f8           [ bfset (a6,-$0f08) == $00c02b9c {d7:d5} ]
00005160 eded f0f8 fd01           [ bfffo (a5,-$02ff) == $00c011b7 {3:d0},d7 ]
00005162 f0f8                     illegal
00005164 fd01                     illegal
00005166 0206 090a                and.b #$0a,d6
0000516a 0b0d 1113                movep.w (a5,$1113) == $00c025c9,d5
0000516e 1316                     move.b (a6) [00],-(a1) [42]
00005170 1514                     move.b (a4) [00],-(a2) [00]
00005172 1010                     move.b (a0) [23],d0
>d
00005174 1211                     move.b (a1) [00],d1
00005176 1214                     move.b (a4) [00],d1
00005178 1616                     move.b (a6) [00],d3
0000517a 140f                     illegal
0000517c 0904                     btst.l d4,d4
0000517e 0204 0604                and.b #$04,d4
00005182 00fa f4f0 efe9           [ cmp2.b (pc,$efe9) == $0000416f,a7 ]
00005184 f4f0                     [ cpushp bc,(a0) ]
00005186 efe9 e9ef f2ed           [ bfins d6,(a1,-$0d13) == $00c007cf {d7:d7} ]
00005188 e9ef f2ed e8ec           [ bfextu (a7,-$1714) == $00bffd92 {11:d5},d7 ]
>d
0000518a f2ed e8ec f1f4           [ fbule #$2d,#$e8ecf1f4 ]
0000518c e8ec f1f4 f3f5           [ bftst (a4,-$0c0b) == $0000094d {7:d4} ]
0000518e f1f4                     illegal
00005190 f3f5                     illegal
00005192 fa01                     illegal
00005194 060d                     illegal
00005196 1216                     move.b (a6) [00],d1
00005198 1817                     move.b (a7) [00],d4
0000519a 1719                     move.b (a1)+ [00],-(a3) [d0]
0000519c 1d21                     move.b -(a1) [42],-(a6) [c2]
>d
0000519e 211f                     move.l (a7)+ [00fc072a],-(a0) [40044e75]
000051a0 1e20                     move.b -(a0) [75],d7
000051a2 1d15                     move.b (a5) [00],-(a6) [c2]
000051a4 0f11                     btst.b d7,(a1) [00]
000051a6 1615                     move.b (a5) [00],d3
000051a8 0e09                     illegal
000051aa 03f9 f0ec ebe7           bset.b d1,$f0ecebe7
000051b0 e5e5                     roxl.w -(a5) [8646]
000051b2 e1d9                     asl.w (a1)+ [00c0]
000051b4 dae3                     adda.w -(a3) [4ed0],a5
>d
000051b6 ecee ecec f1fa           [ bfclr (a6,-$0e06) == $00c02c9e {d3:d4} ]
000051b8 ecec f1fa 0107           [ bfclr (a4,$0107) == $0000165f {7:d2} ]
000051ba f1fa                     illegal
000051bc 0107                     btst.l d0,d7
000051be 060a                     illegal
000051c0 1013                     move.b (a3) [4e],d0
000051c2 100f                     illegal
000051c4 1418                     move.b (a0)+ [23],d2
000051c6 1613                     move.b (a3) [4e],d3
000051c8 1417                     move.b (a7) [00],d2




























































































   
   